0000              1   ;--------------------------------------------------------
0000              2   ; File Created by C51
0000              3   ; Version 1.0.0 #1005 (Jun 25 2012) (MSVC)
0000              4   ; This file was generated Tue Jun 26 21:13:35 2012
0000              5   ;--------------------------------------------------------
                  5   $name gs
                  6   $optc51 --model-small
0000              8            R_DSEG    segment data
0000              9            R_CSEG    segment code
0000             10            R_BSEG    segment bit
0000             11            R_XSEG    segment xdata
0000             12            R_ISEG    segment idata
0000             13            R_OSEG    segment data overlay
0000             14            BIT_BANK  segment data overlay
0000             15            R_HOME    segment code
0000             16            R_GSINIT  segment code
0000             17            R_IXSEG   segment xdata
0000             18            R_CONST   segment code
0000             19            R_XINIT   segment code
0000             20            R_DINIT   segment code
0000             21   
0000             22   ;--------------------------------------------------------
0000             23   ; Public variables in this module
0000             24   ;--------------------------------------------------------
0000             25            public __c51_heap_size
0000             26            public _main
0000             27            public _exit
0000             28            public _inituart
0000             29            public _de2_8052_crt0
0000             30            public __c51_heap
0000             31            public _putchar
0000             32            public _getchar
0000             33            public _add_syseq
0000             34            public _create_syseq
0000             35            public _free_syseq
0000             36            public _eval_syseq
0000             37            public _print_syseq_x
0000             38            public _solve_syseq
0000             39            public _zero_start_syseq
0000             40   ;--------------------------------------------------------
0000             41   ; Special Function Registers
0000             42   ;--------------------------------------------------------
0000             43   _P0             DATA 0x80
0000             44   _SP             DATA 0x81
0000             45   _DPL            DATA 0x82
0000             46   _DPH            DATA 0x83
0000             47   _PCON           DATA 0x87
0000             48   _TCON           DATA 0x88
0000             49   _TMOD           DATA 0x89
0000             50   _TL0            DATA 0x8a
0000             51   _TL1            DATA 0x8b
0000             52   _TH0            DATA 0x8c
0000             53   _TH1            DATA 0x8d
0000             54   _P1             DATA 0x90
0000             55   _SCON           DATA 0x98
0000             56   _SBUF           DATA 0x99
0000             57   _P2             DATA 0xa0
0000             58   _IE             DATA 0xa8
0000             59   _P3             DATA 0xb0
0000             60   _IP             DATA 0xb8
0000             61   _PSW            DATA 0xd0
0000             62   _ACC            DATA 0xe0
0000             63   _B              DATA 0xf0
0000             64   _T2CON          DATA 0xc8
0000             65   _RCAP2L         DATA 0xca
0000             66   _RCAP2H         DATA 0xcb
0000             67   _TL2            DATA 0xcc
0000             68   _TH2            DATA 0xcd
0000             69   _DPS            DATA 0x86
0000             70   _DPH1           DATA 0x85
0000             71   _DPL1           DATA 0x84
0000             72   _HEX0           DATA 0x91
0000             73   _HEX1           DATA 0x92
0000             74   _HEX2           DATA 0x93
0000             75   _HEX3           DATA 0x94
0000             76   _HEX4           DATA 0x8e
0000             77   _HEX5           DATA 0x8f
0000             78   _HEX6           DATA 0x96
0000             79   _HEX7           DATA 0x97
0000             80   _LEDRA          DATA 0xe8
0000             81   _LEDRB          DATA 0x95
0000             82   _LEDRC          DATA 0x9e
0000             83   _LEDG           DATA 0xf8
0000             84   _SWA            DATA 0xe8
0000             85   _SWB            DATA 0x95
0000             86   _SWC            DATA 0x9e
0000             87   _KEY            DATA 0xf8
0000             88   _P0MOD          DATA 0x9a
0000             89   _P1MOD          DATA 0x9b
0000             90   _P2MOD          DATA 0x9c
0000             91   _P3MOD          DATA 0x9d
0000             92   _LCD_CMD        DATA 0xd8
0000             93   _LCD_DATA       DATA 0xd9
0000             94   _LCD_MOD        DATA 0xda
0000             95   _JCMD           DATA 0xc0
0000             96   _JBUF           DATA 0xc1
0000             97   _JCNT           DATA 0xc2
0000             98   _REP_ADD_L      DATA 0xf1
0000             99   _REP_ADD_H      DATA 0xf2
0000            100   _REP_VALUE      DATA 0xf3
0000            101   _DEBUG_CALL_L   DATA 0xfa
0000            102   _DEBUG_CALL_H   DATA 0xfb
0000            103   _BPC            DATA 0xfc
0000            104   _BPS            DATA 0xfd
0000            105   _BPAL           DATA 0xfe
0000            106   _BPAH           DATA 0xff
0000            107   _LBPAL          DATA 0xfa
0000            108   _LBPAH          DATA 0xfb
0000            109   ;--------------------------------------------------------
0000            110   ; special function bits
0000            111   ;--------------------------------------------------------
0000            112   _P0_0           BIT 0x80
0000            113   _P0_1           BIT 0x81
0000            114   _P0_2           BIT 0x82
0000            115   _P0_3           BIT 0x83
0000            116   _P0_4           BIT 0x84
0000            117   _P0_5           BIT 0x85
0000            118   _P0_6           BIT 0x86
0000            119   _P0_7           BIT 0x87
0000            120   _IT0            BIT 0x88
0000            121   _IE0            BIT 0x89
0000            122   _IT1            BIT 0x8a
0000            123   _IE1            BIT 0x8b
0000            124   _TR0            BIT 0x8c
0000            125   _TF0            BIT 0x8d
0000            126   _TR1            BIT 0x8e
0000            127   _TF1            BIT 0x8f
0000            128   _P1_0           BIT 0x90
0000            129   _P1_1           BIT 0x91
0000            130   _P1_2           BIT 0x92
0000            131   _P1_3           BIT 0x93
0000            132   _P1_4           BIT 0x94
0000            133   _P1_5           BIT 0x95
0000            134   _P1_6           BIT 0x96
0000            135   _P1_7           BIT 0x97
0000            136   _RI             BIT 0x98
0000            137   _TI             BIT 0x99
0000            138   _RB8            BIT 0x9a
0000            139   _TB8            BIT 0x9b
0000            140   _REN            BIT 0x9c
0000            141   _SM2            BIT 0x9d
0000            142   _SM1            BIT 0x9e
0000            143   _SM0            BIT 0x9f
0000            144   _P2_0           BIT 0xa0
0000            145   _P2_1           BIT 0xa1
0000            146   _P2_2           BIT 0xa2
0000            147   _P2_3           BIT 0xa3
0000            148   _P2_4           BIT 0xa4
0000            149   _P2_5           BIT 0xa5
0000            150   _P2_6           BIT 0xa6
0000            151   _P2_7           BIT 0xa7
0000            152   _EX0            BIT 0xa8
0000            153   _ET0            BIT 0xa9
0000            154   _EX1            BIT 0xaa
0000            155   _ET1            BIT 0xab
0000            156   _ES             BIT 0xac
0000            157   _ET2            BIT 0xad
0000            158   _EA             BIT 0xaf
0000            159   _P3_0           BIT 0xb0
0000            160   _P3_1           BIT 0xb1
0000            161   _P3_2           BIT 0xb2
0000            162   _P3_3           BIT 0xb3
0000            163   _P3_4           BIT 0xb4
0000            164   _P3_5           BIT 0xb5
0000            165   _P3_6           BIT 0xb6
0000            166   _P3_7           BIT 0xb7
0000            167   _RXD            BIT 0xb0
0000            168   _TXD            BIT 0xb1
0000            169   _INT0           BIT 0xb2
0000            170   _INT1           BIT 0xb3
0000            171   _T0             BIT 0xb4
0000            172   _T1             BIT 0xb5
0000            173   _WR             BIT 0xb6
0000            174   _RD             BIT 0xb7
0000            175   _PX0            BIT 0xb8
0000            176   _PT0            BIT 0xb9
0000            177   _PX1            BIT 0xba
0000            178   _PT1            BIT 0xbb
0000            179   _PS             BIT 0xbc
0000            180   _PT2            BIT 0xbd
0000            181   _P              BIT 0xd0
0000            182   _F1             BIT 0xd1
0000            183   _OV             BIT 0xd2
0000            184   _RS0            BIT 0xd3
0000            185   _RS1            BIT 0xd4
0000            186   _F0             BIT 0xd5
0000            187   _AC             BIT 0xd6
0000            188   _CY             BIT 0xd7
0000            189   _T2CON_0        BIT 0xc8
0000            190   _T2CON_1        BIT 0xc9
0000            191   _T2CON_2        BIT 0xca
0000            192   _T2CON_3        BIT 0xcb
0000            193   _T2CON_4        BIT 0xcc
0000            194   _T2CON_5        BIT 0xcd
0000            195   _T2CON_6        BIT 0xce
0000            196   _T2CON_7        BIT 0xcf
0000            197   _CP_RL2         BIT 0xc8
0000            198   _C_T2           BIT 0xc9
0000            199   _TR2            BIT 0xca
0000            200   _EXEN2          BIT 0xcb
0000            201   _TCLK           BIT 0xcc
0000            202   _RCLK           BIT 0xcd
0000            203   _EXF2           BIT 0xce
0000            204   _TF2            BIT 0xcf
0000            205   _LEDRA_0        BIT 0xe8
0000            206   _LEDRA_1        BIT 0xe9
0000            207   _LEDRA_2        BIT 0xea
0000            208   _LEDRA_3        BIT 0xeb
0000            209   _LEDRA_4        BIT 0xec
0000            210   _LEDRA_5        BIT 0xed
0000            211   _LEDRA_6        BIT 0xee
0000            212   _LEDRA_7        BIT 0xef
0000            213   _SWA_0          BIT 0xe8
0000            214   _SWA_1          BIT 0xe9
0000            215   _SWA_2          BIT 0xea
0000            216   _SWA_3          BIT 0xeb
0000            217   _SWA_4          BIT 0xec
0000            218   _SWA_5          BIT 0xed
0000            219   _SWA_6          BIT 0xee
0000            220   _SWA_7          BIT 0xef
0000            221   _LEDG_0         BIT 0xf8
0000            222   _LEDG_1         BIT 0xf9
0000            223   _LEDG_2         BIT 0xfa
0000            224   _LEDG_3         BIT 0xfb
0000            225   _LEDG_4         BIT 0xfc
0000            226   _LEDG_5         BIT 0xfd
0000            227   _LEDG_6         BIT 0xfe
0000            228   _LEDG_7         BIT 0xff
0000            229   _KEY_1          BIT 0xf9
0000            230   _KEY_2          BIT 0xfa
0000            231   _KEY_3          BIT 0xfb
0000            232   _LCD_RW         BIT 0xd8
0000            233   _LCD_EN         BIT 0xd9
0000            234   _LCD_RS         BIT 0xda
0000            235   _LCD_ON         BIT 0xdb
0000            236   _LCD_BLON       BIT 0xdc
0000            237   _JRXRDY         BIT 0xc0
0000            238   _JTXRDY         BIT 0xc1
0000            239   _JRXEN          BIT 0xc2
0000            240   _JTXEN          BIT 0xc3
0000            241   _JTXFULL        BIT 0xc4
0000            242   _JRXFULL        BIT 0xc5
0000            243   _JTXEMPTY       BIT 0xc6
0000            244   _JTDI           BIT 0xc7
0000            245   ;--------------------------------------------------------
0000            246   ; overlayable register banks
0000            247   ;--------------------------------------------------------
0000            248            rbank0 segment data overlay
0000            249   ;--------------------------------------------------------
0000            250   ; internal ram data
0000            251   ;--------------------------------------------------------
0000            252            rseg R_DSEG
0000            253   _main_syseq_1_1:
0000            254            ds 3
0003            255   ;--------------------------------------------------------
0003            256   ; overlayable items in internal ram 
0003            257   ;--------------------------------------------------------
0000            258            rseg    R_OSEG
0000            259            rseg    R_OSEG
0000            260            rseg    R_OSEG
0000            261   ;--------------------------------------------------------
0000            262   ; indirectly addressable internal ram data
0000            263   ;--------------------------------------------------------
0000            264            rseg R_ISEG
0000            265   ;--------------------------------------------------------
0000            266   ; absolute internal ram data
0000            267   ;--------------------------------------------------------
0000            268            DSEG
0000            269   ;--------------------------------------------------------
0000            270   ; bit data
0000            271   ;--------------------------------------------------------
0000            272            rseg R_BSEG
0000            273   ;--------------------------------------------------------
0000            274   ; paged external ram data
0000            275   ;--------------------------------------------------------
0000            276            rseg R_XSEG
0000            277   ;--------------------------------------------------------
0000            278   ; external ram data
0000            279   ;--------------------------------------------------------
0000            280            rseg R_XSEG
0000            281   __c51_heap:
0000            282            ds 384
0180            283   ;--------------------------------------------------------
0180            284   ; absolute external ram data
0180            285   ;--------------------------------------------------------
0000            286            XSEG
0000            287   ;--------------------------------------------------------
0000            288   ; external initialized ram data
0000            289   ;--------------------------------------------------------
0000            290            rseg R_IXSEG
0000            291            rseg R_HOME
0000            292            rseg R_GSINIT
0000            293            rseg R_CSEG
0000            294   ;--------------------------------------------------------
0000            295   ; Reset entry point and interrupt vectors
0000            296   ;--------------------------------------------------------
0000            297            CSEG at 0x0000
0000 020100     298            ljmp    _crt0
0003            299   ;--------------------------------------------------------
0003            300   ; global & static initialisations
0003            301   ;--------------------------------------------------------
0000            302            rseg R_HOME
0000            303            rseg R_GSINIT
0000            304            rseg R_GSINIT
0000            305   ;--------------------------------------------------------
0000            306   ; data variables initialization
0000            307   ;--------------------------------------------------------
0000            308            rseg R_DINIT
0000            309            ; The linker places a 'ret' at the end of segment R_DINIT.
0000            310   ;--------------------------------------------------------
0000            311   ; code
0000            312   ;--------------------------------------------------------
0000            313            rseg R_CSEG
0000            314   ;------------------------------------------------------------
0000            315   ;Allocation info for local variables in function 'de2_8052_crt0'
0000            316   ;------------------------------------------------------------
0000            317   ;------------------------------------------------------------
0000            318   ;        C:/Source/call51/bin/../include/mcs51/DE2_8052.h:304: void de2_8052_crt0 (void) _naked
0000            319   ;        -----------------------------------------
0000            320   ;         function de2_8052_crt0
0000            321   ;        -----------------------------------------
0000            322   _de2_8052_crt0:
0000            323   ;        naked function: no prologue.
0000            324   ;        C:/Source/call51/bin/../include/mcs51/DE2_8052.h:373: _endasm;
0000            325            
0000            326            
0000            327             rseg R_GSINIT
0000            328             public _crt0
0000            329            _crt0:
0000 7581FF     330             mov sp,#_stack_start-1
0003 120100     331             lcall __c51_external_startup
0006 E582       332             mov a,dpl
0008 6001       333             jz __c51_init_data
000A 020100     334             ljmp __c51_program_startup
000D            335            __c51_init_data:
000D            336            
000D            337   ; Initialize xdata variables
000D            338            
000D 758200     339             mov dpl, #_R_XINIT_start
0010 758300     340             mov dph, #(_R_XINIT_start>>8)
0013 758400     341             mov _DPL1, #_R_IXSEG_start
0016 758500     342             mov _DPH1, #(_R_IXSEG_start>>8)
0019 7800       343             mov r0, #_R_IXSEG_size
001B 7900       344             mov r1, #(_R_IXSEG_size>>8)
001D            345            
001D            346            XInitLoop?repeat?:
001D E8         347             mov a, r0
001E 49         348             orl a, r1
001F 6001       349             jz XInitLoop?done?
0021 E4         350             clr a
0022 758600     351             mov _DPS, #0 ; Using dpl, dph
0025 93         352             movc a,@a+dptr
0026 A3         353             inc dptr
0027 758601     354             mov _DPS, #1 ; Using DPL1, DPH1
002A F0         355             movx @dptr, a
002B A3         356             inc dptr
002C 18         357             dec r0
002D B8FFA0     358             cjne r0, #0xff, XInitLoop?repeat?
0030 19         359             dec r1
0031 8001       360             sjmp XInitLoop?repeat?
0033            361            
0033            362            XInitLoop?done?:
0033            363            
0033            364   ; Clear xdata variables
0033 758600     365             mov _DPS, #0 ; Make sure we are using dpl, dph
0036 758200     366             mov dpl, #_R_XSEG_start
0039 758300     367             mov dph, #(_R_XSEG_start>>8)
003C 7C00       368             mov r4, #_R_XSEG_size
003E 7D00       369             mov r5, #(_R_XSEG_size>>8)
0040            370            
0040            371            XClearLoop?repeat?:
0040 EC         372             mov a, r4
0041 4D         373             orl a, r5
0042 6001       374             jz XClearLoop?done?
0044 E4         375             clr a
0045 F0         376             movx @dptr, a
0046 A3         377             inc dptr
0047 1C         378             dec r4
0048 BCFFB0     379             cjne r4, #0xff, XClearLoop?repeat?
004B 1D         380             dec r5
004C 8001       381             sjmp XClearLoop?repeat?
004E            382            
004E            383            XClearLoop?done?:
004E 120100     384             lcall _R_DINIT_start ; Initialize data/idata variables
0051            385            
0051            386            __c51_program_startup:
0051 120100     387             lcall _main
0054            388            
0054            389            forever?home?:
0054 8001       390             sjmp forever?home?
0056            391            
0056            392             
0056            393   ;        naked function: no epilogue.
0056            394   ;------------------------------------------------------------
0056            395   ;Allocation info for local variables in function 'inituart'
0056            396   ;------------------------------------------------------------
0056            397   ;------------------------------------------------------------
0056            398   ;        C:\Source\call51\Examples\c\gs.c:28: void inituart (void)
0056            399   ;        -----------------------------------------
0056            400   ;         function inituart
0056            401   ;        -----------------------------------------
0056            402   _inituart:
0056            403            using   0
0056            404   ;        C:\Source\call51\Examples\c\gs.c:30: RCAP2H=HIGH(TIMER_2_RELOAD);
0056 75CBFF     405            mov     _RCAP2H,#0xFF
0059            406   ;        C:\Source\call51\Examples\c\gs.c:31: RCAP2L=LOW(TIMER_2_RELOAD);
0059 75CAFD     407            mov     _RCAP2L,#0xFD
005C            408   ;        C:\Source\call51\Examples\c\gs.c:32: T2CON=0x34; // #00110100B
005C 75C834     409            mov     _T2CON,#0x34
005F            410   ;        C:\Source\call51\Examples\c\gs.c:33: SCON=0x52; // Serial port in mode 1, ren, txrdy, rxempty
005F 759852     411            mov     _SCON,#0x52
0062 22         412            ret
0063            413   ;------------------------------------------------------------
0063            414   ;Allocation info for local variables in function 'putchar'
0063            415   ;------------------------------------------------------------
0063            416   ;c                         Allocated to registers r2 
0063            417   ;------------------------------------------------------------
0063            418   ;        C:\Source\call51\Examples\c\gs.c:36: void putchar (char c)
0063            419   ;        -----------------------------------------
0063            420   ;         function putchar
0063            421   ;        -----------------------------------------
0063            422   _putchar:
0063 AA82       423            mov     r2,dpl
0065            424   ;        C:\Source\call51\Examples\c\gs.c:38: if (c=='\n')
0065 BA0AC0     425            cjne    r2,#0x0A,L004006?
0068            426   ;        C:\Source\call51\Examples\c\gs.c:40: while (!TI);
0068            427   L004001?:
0068            428   ;        C:\Source\call51\Examples\c\gs.c:41: TI=0;
0068 109940     429            jbc     _TI,L004017?
006B 8001       430            sjmp    L004001?
006D            431   L004017?:
006D            432   ;        C:\Source\call51\Examples\c\gs.c:42: SBUF='\r';
006D 75990D     433            mov     _SBUF,#0x0D
0070            434   ;        C:\Source\call51\Examples\c\gs.c:44: while (!TI);
0070            435   L004006?:
0070            436   ;        C:\Source\call51\Examples\c\gs.c:45: TI=0;
0070 109980     437            jbc     _TI,L004018?
0073 8001       438            sjmp    L004006?
0075            439   L004018?:
0075            440   ;        C:\Source\call51\Examples\c\gs.c:46: SBUF=c;
0075 8A99       441            mov     _SBUF,r2
0077 22         442            ret
0078            443   ;------------------------------------------------------------
0078            444   ;Allocation info for local variables in function 'getchar'
0078            445   ;------------------------------------------------------------
0078            446   ;c                         Allocated to registers 
0078            447   ;------------------------------------------------------------
0078            448   ;        C:\Source\call51\Examples\c\gs.c:49: char getchar (void)
0078            449   ;        -----------------------------------------
0078            450   ;         function getchar
0078            451   ;        -----------------------------------------
0078            452   _getchar:
0078            453   ;        C:\Source\call51\Examples\c\gs.c:53: while (!RI);
0078            454   L005001?:
0078            455   ;        C:\Source\call51\Examples\c\gs.c:54: RI=0;
0078 109800     456            jbc     _RI,L005008?
007B 8001       457            sjmp    L005001?
007D            458   L005008?:
007D            459   ;        C:\Source\call51\Examples\c\gs.c:55: c=SBUF;
007D 859982     460            mov     dpl,_SBUF
0080            461   ;        C:\Source\call51\Examples\c\gs.c:56: return c;
0080 22         462            ret
0081            463   ;------------------------------------------------------------
0081            464   ;Allocation info for local variables in function 'exit'
0081            465   ;------------------------------------------------------------
0081            466   ;j                         Allocated to registers 
0081            467   ;------------------------------------------------------------
0081            468   ;        C:\Source\call51\Examples\c\gs.c:59: void exit (int j)
0081            469   ;        -----------------------------------------
0081            470   ;         function exit
0081            471   ;        -----------------------------------------
0081            472   _exit:
0081            473   ;        C:\Source\call51\Examples\c\gs.c:61: while(1);
0081            474   L006002?:
0081            475   ;        C:\Source\call51\Examples\c\gs.c:62: j;
0081 8001       476            sjmp    L006002?
0083            477   ;------------------------------------------------------------
0083            478   ;Allocation info for local variables in function 'add_syseq'
0083            479   ;------------------------------------------------------------
0083            480   ;row                       Allocated to stack - offset -4
0083            481   ;col                       Allocated to stack - offset -6
0083            482   ;value                     Allocated to stack - offset -10
0083            483   ;syseq                     Allocated to registers r2 r3 r4 
0083            484   ;i                         Allocated to stack - offset 1
0083            485   ;sloc0                     Allocated to stack - offset 3
0083            486   ;sloc1                     Allocated to stack - offset 6
0083            487   ;sloc2                     Allocated to stack - offset 13
0083            488   ;sloc3                     Allocated to stack - offset 10
0083            489   ;sloc4                     Allocated to stack - offset 13
0083            490   ;sloc5                     Allocated to stack - offset 16
0083            491   ;------------------------------------------------------------
0083            492   ;        C:\Source\call51\Examples\c\gs.c:73: void add_syseq(_syseq * syseq, int row, int col, double value) reentrant
0083            493   ;        -----------------------------------------
0083            494   ;         function add_syseq
0083            495   ;        -----------------------------------------
0083            496   _add_syseq:
0083 C000       497            push    _bp
0085 E581       498            mov     a,sp
0087 F500       499            mov     _bp,a
0089 2413       500            add     a,#0x13
008B F581       501            mov     sp,a
008D AA82       502            mov     r2,dpl
008F AB83       503            mov     r3,dph
0091 ACF0       504            mov     r4,b
0093            505   ;        C:\Source\call51\Examples\c\gs.c:77: if(value==0.0) return; //Preserve sparsity
0093 E500       506            mov     a,_bp
0095 24F6       507            add     a,#0xf6
0097 F8         508            mov     r0,a
0098 E6         509            mov     a,@r0
0099 08         510            inc     r0
009A 46         511            orl     a,@r0
009B 08         512            inc     r0
009C 46         513            orl     a,@r0
009D 08         514            inc     r0
009E 46         515            orl     a,@r0
009F 7001       516            jnz     L007002?
00A1 020100     517            ljmp    L007015?
00A4            518   L007002?:
00A4            519   ;        C:\Source\call51\Examples\c\gs.c:80: if(row==col)
00A4 E500       520            mov     a,_bp
00A6 24FC       521            add     a,#0xfc
00A8 F8         522            mov     r0,a
00A9 E500       523            mov     a,_bp
00AB 24FA       524            add     a,#0xfa
00AD F9         525            mov     r1,a
00AE 86F0       526            mov     b,@r0
00B0 E7         527            mov     a,@r1
00B1 B5F080     528            cjne    a,b,L007025?
00B4 08         529            inc     r0
00B5 86F0       530            mov     b,@r0
00B7 09         531            inc     r1
00B8 E7         532            mov     a,@r1
00B9 B5F080     533            cjne    a,b,L007025?
00BC 8001       534            sjmp    L007026?
00BE            535   L007025?:
00BE 020100     536            ljmp    L007004?
00C1            537   L007026?:
00C1            538   ;        C:\Source\call51\Examples\c\gs.c:82: syseq->eq[row].g+=value;
00C1 7410       539            mov     a,#0x10
00C3 2A         540            add     a,r2
00C4 FD         541            mov     r5,a
00C5 E4         542            clr     a
00C6 3B         543            addc    a,r3
00C7 FE         544            mov     r6,a
00C8 8C07       545            mov     ar7,r4
00CA 8D82       546            mov     dpl,r5
00CC 8E83       547            mov     dph,r6
00CE 8FF0       548            mov     b,r7
00D0 120100     549            lcall   __gptrget
00D3 FA         550            mov     r2,a
00D4 A3         551            inc     dptr
00D5 120100     552            lcall   __gptrget
00D8 FB         553            mov     r3,a
00D9 A3         554            inc     dptr
00DA 120100     555            lcall   __gptrget
00DD FC         556            mov     r4,a
00DE E500       557            mov     a,_bp
00E0 24FC       558            add     a,#0xfc
00E2 F8         559            mov     r0,a
00E3 8600       560            mov     __mulint_PARM_2,@r0
00E5 08         561            inc     r0
00E6 8601       562            mov     (__mulint_PARM_2 + 1),@r0
00E8 900014     563            mov     dptr,#0x0014
00EB C002       564            push    ar2
00ED C003       565            push    ar3
00EF C004       566            push    ar4
00F1 120100     567            lcall   __mulint
00F4 AD82       568            mov     r5,dpl
00F6 AE83       569            mov     r6,dph
00F8 D004       570            pop     ar4
00FA D003       571            pop     ar3
00FC D002       572            pop     ar2
00FE ED         573            mov     a,r5
00FF 2A         574            add     a,r2
0100 FD         575            mov     r5,a
0101 EE         576            mov     a,r6
0102 3B         577            addc    a,r3
0103 FE         578            mov     r6,a
0104 8C07       579            mov     ar7,r4
0106 7404       580            mov     a,#0x04
0108 2D         581            add     a,r5
0109 FA         582            mov     r2,a
010A E4         583            clr     a
010B 3E         584            addc    a,r6
010C FB         585            mov     r3,a
010D 8F04       586            mov     ar4,r7
010F 8A82       587            mov     dpl,r2
0111 8B83       588            mov     dph,r3
0113 8CF0       589            mov     b,r4
0115 E500       590            mov     a,_bp
0117 2406       591            add     a,#0x06
0119 F8         592            mov     r0,a
011A 120100     593            lcall   __gptrget
011D F6         594            mov     @r0,a
011E A3         595            inc     dptr
011F 120100     596            lcall   __gptrget
0122 08         597            inc     r0
0123 F6         598            mov     @r0,a
0124 A3         599            inc     dptr
0125 120100     600            lcall   __gptrget
0128 08         601            inc     r0
0129 F6         602            mov     @r0,a
012A A3         603            inc     dptr
012B 120100     604            lcall   __gptrget
012E 08         605            inc     r0
012F F6         606            mov     @r0,a
0130 C002       607            push    ar2
0132 C003       608            push    ar3
0134 C004       609            push    ar4
0136 E500       610            mov     a,_bp
0138 24F6       611            add     a,#0xf6
013A F8         612            mov     r0,a
013B E6         613            mov     a,@r0
013C C0E0       614            push    acc
013E 08         615            inc     r0
013F E6         616            mov     a,@r0
0140 C0E0       617            push    acc
0142 08         618            inc     r0
0143 E6         619            mov     a,@r0
0144 C0E0       620            push    acc
0146 08         621            inc     r0
0147 E6         622            mov     a,@r0
0148 C0E0       623            push    acc
014A E500       624            mov     a,_bp
014C 2406       625            add     a,#0x06
014E F8         626            mov     r0,a
014F 8682       627            mov     dpl,@r0
0151 08         628            inc     r0
0152 8683       629            mov     dph,@r0
0154 08         630            inc     r0
0155 86F0       631            mov     b,@r0
0157 08         632            inc     r0
0158 E6         633            mov     a,@r0
0159 120100     634            lcall   ___fsadd
015C C8         635            xch     a,r0
015D E500       636            mov     a,_bp
015F 2406       637            add     a,#0x06
0161 C8         638            xch     a,r0
0162 A682       639            mov     @r0,dpl
0164 08         640            inc     r0
0165 A683       641            mov     @r0,dph
0167 08         642            inc     r0
0168 A6F0       643            mov     @r0,b
016A 08         644            inc     r0
016B F6         645            mov     @r0,a
016C E581       646            mov     a,sp
016E 24FC       647            add     a,#0xfc
0170 F581       648            mov     sp,a
0172 D004       649            pop     ar4
0174 D003       650            pop     ar3
0176 D002       651            pop     ar2
0178 8A82       652            mov     dpl,r2
017A 8B83       653            mov     dph,r3
017C 8CF0       654            mov     b,r4
017E E500       655            mov     a,_bp
0180 2406       656            add     a,#0x06
0182 F8         657            mov     r0,a
0183 E6         658            mov     a,@r0
0184 120100     659            lcall   __gptrput
0187 A3         660            inc     dptr
0188 08         661            inc     r0
0189 E6         662            mov     a,@r0
018A 120100     663            lcall   __gptrput
018D A3         664            inc     dptr
018E 08         665            inc     r0
018F E6         666            mov     a,@r0
0190 120100     667            lcall   __gptrput
0193 A3         668            inc     dptr
0194 08         669            inc     r0
0195 E6         670            mov     a,@r0
0196 120100     671            lcall   __gptrput
0199            672   ;        C:\Source\call51\Examples\c\gs.c:83: return;
0199 020100     673            ljmp    L007015?
019C            674   L007004?:
019C            675   ;        C:\Source\call51\Examples\c\gs.c:87: for(i=0; i < syseq->eq[row].n; i++)
019C E500       676            mov     a,_bp
019E 2403       677            add     a,#0x03
01A0 F8         678            mov     r0,a
01A1 E4         679            clr     a
01A2 F6         680            mov     @r0,a
01A3 08         681            inc     r0
01A4 F6         682            mov     @r0,a
01A5 7410       683            mov     a,#0x10
01A7 2A         684            add     a,r2
01A8 FA         685            mov     r2,a
01A9 E4         686            clr     a
01AA 3B         687            addc    a,r3
01AB FB         688            mov     r3,a
01AC E500       689            mov     a,_bp
01AE 24FC       690            add     a,#0xfc
01B0 F8         691            mov     r0,a
01B1 8600       692            mov     __mulint_PARM_2,@r0
01B3 08         693            inc     r0
01B4 8601       694            mov     (__mulint_PARM_2 + 1),@r0
01B6 900014     695            mov     dptr,#0x0014
01B9 C002       696            push    ar2
01BB C003       697            push    ar3
01BD C004       698            push    ar4
01BF 120100     699            lcall   __mulint
01C2 C8         700            xch     a,r0
01C3 E500       701            mov     a,_bp
01C5 2406       702            add     a,#0x06
01C7 C8         703            xch     a,r0
01C8 A682       704            mov     @r0,dpl
01CA 08         705            inc     r0
01CB A683       706            mov     @r0,dph
01CD D004       707            pop     ar4
01CF D003       708            pop     ar3
01D1 D002       709            pop     ar2
01D3 A800       710            mov     r0,_bp
01D5 08         711            inc     r0
01D6 E4         712            clr     a
01D7 F6         713            mov     @r0,a
01D8 08         714            inc     r0
01D9 F6         715            mov     @r0,a
01DA            716   L007011?:
01DA 8A82       717            mov     dpl,r2
01DC 8B83       718            mov     dph,r3
01DE 8CF0       719            mov     b,r4
01E0 120100     720            lcall   __gptrget
01E3 FE         721            mov     r6,a
01E4 A3         722            inc     dptr
01E5 120100     723            lcall   __gptrget
01E8 FD         724            mov     r5,a
01E9 A3         725            inc     dptr
01EA 120100     726            lcall   __gptrget
01ED FF         727            mov     r7,a
01EE E500       728            mov     a,_bp
01F0 2406       729            add     a,#0x06
01F2 F8         730            mov     r0,a
01F3 E500       731            mov     a,_bp
01F5 240D       732            add     a,#0x0d
01F7 F9         733            mov     r1,a
01F8 E6         734            mov     a,@r0
01F9 2E         735            add     a,r6
01FA F7         736            mov     @r1,a
01FB 08         737            inc     r0
01FC E6         738            mov     a,@r0
01FD 3D         739            addc    a,r5
01FE 09         740            inc     r1
01FF F7         741            mov     @r1,a
0200 09         742            inc     r1
0201 A707       743            mov     @r1,ar7
0203 C002       744            push    ar2
0205 C003       745            push    ar3
0207 C004       746            push    ar4
0209 E500       747            mov     a,_bp
020B 240D       748            add     a,#0x0d
020D F8         749            mov     r0,a
020E 7412       750            mov     a,#0x12
0210 26         751            add     a,@r0
0211 FA         752            mov     r2,a
0212 E4         753            clr     a
0213 08         754            inc     r0
0214 36         755            addc    a,@r0
0215 FB         756            mov     r3,a
0216 08         757            inc     r0
0217 8604       758            mov     ar4,@r0
0219 8A82       759            mov     dpl,r2
021B 8B83       760            mov     dph,r3
021D 8CF0       761            mov     b,r4
021F 120100     762            lcall   __gptrget
0222 FD         763            mov     r5,a
0223 A3         764            inc     dptr
0224 120100     765            lcall   __gptrget
0227 FE         766            mov     r6,a
0228 A800       767            mov     r0,_bp
022A 08         768            inc     r0
022B C3         769            clr     c
022C E6         770            mov     a,@r0
022D 9D         771            subb    a,r5
022E 08         772            inc     r0
022F E6         773            mov     a,@r0
0230 6480       774            xrl     a,#0x80
0232 8EF0       775            mov     b,r6
0234 63F080     776            xrl     b,#0x80
0237 95F0       777            subb    a,b
0239 D004       778            pop     ar4
023B D003       779            pop     ar3
023D D002       780            pop     ar2
023F 4001       781            jc      L007027?
0241 020100     782            ljmp    L007014?
0244            783   L007027?:
0244            784   ;        C:\Source\call51\Examples\c\gs.c:89: if (col==syseq->eq[row].eqn[i])
0244 C002       785            push    ar2
0246 C003       786            push    ar3
0248 C004       787            push    ar4
024A E500       788            mov     a,_bp
024C 240D       789            add     a,#0x0d
024E F8         790            mov     r0,a
024F 740F       791            mov     a,#0x0F
0251 26         792            add     a,@r0
0252 FA         793            mov     r2,a
0253 E4         794            clr     a
0254 08         795            inc     r0
0255 36         796            addc    a,@r0
0256 FB         797            mov     r3,a
0257 08         798            inc     r0
0258 8604       799            mov     ar4,@r0
025A 8A82       800            mov     dpl,r2
025C 8B83       801            mov     dph,r3
025E 8CF0       802            mov     b,r4
0260 120100     803            lcall   __gptrget
0263 FD         804            mov     r5,a
0264 A3         805            inc     dptr
0265 120100     806            lcall   __gptrget
0268 FE         807            mov     r6,a
0269 A3         808            inc     dptr
026A 120100     809            lcall   __gptrget
026D FF         810            mov     r7,a
026E A800       811            mov     r0,_bp
0270 08         812            inc     r0
0271 8602       813            mov     ar2,@r0
0273 08         814            inc     r0
0274 E6         815            mov     a,@r0
0275 CA         816            xch     a,r2
0276 25E0       817            add     a,acc
0278 CA         818            xch     a,r2
0279 33         819            rlc     a
027A FB         820            mov     r3,a
027B EA         821            mov     a,r2
027C 2D         822            add     a,r5
027D FA         823            mov     r2,a
027E EB         824            mov     a,r3
027F 3E         825            addc    a,r6
0280 FB         826            mov     r3,a
0281 8F04       827            mov     ar4,r7
0283 8A82       828            mov     dpl,r2
0285 8B83       829            mov     dph,r3
0287 8CF0       830            mov     b,r4
0289 120100     831            lcall   __gptrget
028C FA         832            mov     r2,a
028D A3         833            inc     dptr
028E 120100     834            lcall   __gptrget
0291 FB         835            mov     r3,a
0292 E500       836            mov     a,_bp
0294 24FA       837            add     a,#0xfa
0296 F8         838            mov     r0,a
0297 E6         839            mov     a,@r0
0298 B50280     840            cjne    a,ar2,L007028?
029B 08         841            inc     r0
029C E6         842            mov     a,@r0
029D B50380     843            cjne    a,ar3,L007028?
02A0 8001       844            sjmp    L007029?
02A2            845   L007028?:
02A2 D004       846            pop     ar4
02A4 D003       847            pop     ar3
02A6 D002       848            pop     ar2
02A8 020100     849            ljmp    L007013?
02AB            850   L007029?:
02AB D004       851            pop     ar4
02AD D003       852            pop     ar3
02AF D002       853            pop     ar2
02B1            854   ;        C:\Source\call51\Examples\c\gs.c:91: syseq->eq[row].gij[i]+=value;
02B1 E500       855            mov     a,_bp
02B3 240D       856            add     a,#0x0d
02B5 F8         857            mov     r0,a
02B6 740C       858            mov     a,#0x0C
02B8 26         859            add     a,@r0
02B9 FD         860            mov     r5,a
02BA E4         861            clr     a
02BB 08         862            inc     r0
02BC 36         863            addc    a,@r0
02BD FE         864            mov     r6,a
02BE 08         865            inc     r0
02BF 8607       866            mov     ar7,@r0
02C1 8D82       867            mov     dpl,r5
02C3 8E83       868            mov     dph,r6
02C5 8FF0       869            mov     b,r7
02C7 120100     870            lcall   __gptrget
02CA FA         871            mov     r2,a
02CB A3         872            inc     dptr
02CC 120100     873            lcall   __gptrget
02CF FB         874            mov     r3,a
02D0 A3         875            inc     dptr
02D1 120100     876            lcall   __gptrget
02D4 FC         877            mov     r4,a
02D5 E500       878            mov     a,_bp
02D7 2403       879            add     a,#0x03
02D9 F8         880            mov     r0,a
02DA 8605       881            mov     ar5,@r0
02DC 08         882            inc     r0
02DD E6         883            mov     a,@r0
02DE CD         884            xch     a,r5
02DF 25E0       885            add     a,acc
02E1 CD         886            xch     a,r5
02E2 33         887            rlc     a
02E3 CD         888            xch     a,r5
02E4 25E0       889            add     a,acc
02E6 CD         890            xch     a,r5
02E7 33         891            rlc     a
02E8 FE         892            mov     r6,a
02E9 ED         893            mov     a,r5
02EA 2A         894            add     a,r2
02EB FA         895            mov     r2,a
02EC EE         896            mov     a,r6
02ED 3B         897            addc    a,r3
02EE FB         898            mov     r3,a
02EF 8A82       899            mov     dpl,r2
02F1 8B83       900            mov     dph,r3
02F3 8CF0       901            mov     b,r4
02F5 E500       902            mov     a,_bp
02F7 2410       903            add     a,#0x10
02F9 F8         904            mov     r0,a
02FA 120100     905            lcall   __gptrget
02FD F6         906            mov     @r0,a
02FE A3         907            inc     dptr
02FF 120100     908            lcall   __gptrget
0302 08         909            inc     r0
0303 F6         910            mov     @r0,a
0304 A3         911            inc     dptr
0305 120100     912            lcall   __gptrget
0308 08         913            inc     r0
0309 F6         914            mov     @r0,a
030A A3         915            inc     dptr
030B 120100     916            lcall   __gptrget
030E 08         917            inc     r0
030F F6         918            mov     @r0,a
0310 C002       919            push    ar2
0312 C003       920            push    ar3
0314 C004       921            push    ar4
0316 E500       922            mov     a,_bp
0318 24F6       923            add     a,#0xf6
031A F8         924            mov     r0,a
031B E6         925            mov     a,@r0
031C C0E0       926            push    acc
031E 08         927            inc     r0
031F E6         928            mov     a,@r0
0320 C0E0       929            push    acc
0322 08         930            inc     r0
0323 E6         931            mov     a,@r0
0324 C0E0       932            push    acc
0326 08         933            inc     r0
0327 E6         934            mov     a,@r0
0328 C0E0       935            push    acc
032A E500       936            mov     a,_bp
032C 2410       937            add     a,#0x10
032E F8         938            mov     r0,a
032F 8682       939            mov     dpl,@r0
0331 08         940            inc     r0
0332 8683       941            mov     dph,@r0
0334 08         942            inc     r0
0335 86F0       943            mov     b,@r0
0337 08         944            inc     r0
0338 E6         945            mov     a,@r0
0339 120100     946            lcall   ___fsadd
033C C8         947            xch     a,r0
033D E500       948            mov     a,_bp
033F 2410       949            add     a,#0x10
0341 C8         950            xch     a,r0
0342 A682       951            mov     @r0,dpl
0344 08         952            inc     r0
0345 A683       953            mov     @r0,dph
0347 08         954            inc     r0
0348 A6F0       955            mov     @r0,b
034A 08         956            inc     r0
034B F6         957            mov     @r0,a
034C E581       958            mov     a,sp
034E 24FC       959            add     a,#0xfc
0350 F581       960            mov     sp,a
0352 D004       961            pop     ar4
0354 D003       962            pop     ar3
0356 D002       963            pop     ar2
0358 8A82       964            mov     dpl,r2
035A 8B83       965            mov     dph,r3
035C 8CF0       966            mov     b,r4
035E E500       967            mov     a,_bp
0360 2410       968            add     a,#0x10
0362 F8         969            mov     r0,a
0363 E6         970            mov     a,@r0
0364 120100     971            lcall   __gptrput
0367 A3         972            inc     dptr
0368 08         973            inc     r0
0369 E6         974            mov     a,@r0
036A 120100     975            lcall   __gptrput
036D A3         976            inc     dptr
036E 08         977            inc     r0
036F E6         978            mov     a,@r0
0370 120100     979            lcall   __gptrput
0373 A3         980            inc     dptr
0374 08         981            inc     r0
0375 E6         982            mov     a,@r0
0376 120100     983            lcall   __gptrput
0379            984   ;        C:\Source\call51\Examples\c\gs.c:92: return;
0379 020100     985            ljmp    L007015?
037C            986   L007013?:
037C            987   ;        C:\Source\call51\Examples\c\gs.c:87: for(i=0; i < syseq->eq[row].n; i++)
037C A800       988            mov     r0,_bp
037E 08         989            inc     r0
037F 06         990            inc     @r0
0380 B60040     991            cjne    @r0,#0x00,L007030?
0383 08         992            inc     r0
0384 06         993            inc     @r0
0385            994   L007030?:
0385 A800       995            mov     r0,_bp
0387 08         996            inc     r0
0388 E500       997            mov     a,_bp
038A 2403       998            add     a,#0x03
038C F9         999            mov     r1,a
038D E6        1000            mov     a,@r0
038E F7        1001            mov     @r1,a
038F 08        1002            inc     r0
0390 09        1003            inc     r1
0391 E6        1004            mov     a,@r0
0392 F7        1005            mov     @r1,a
0393 020100    1006            ljmp    L007011?
0396           1007   L007014?:
0396           1008   ;        C:\Source\call51\Examples\c\gs.c:97: syseq->eq[row].gij=realloc(syseq->eq[row].gij, (syseq->eq[row].n+1)*sizeof(double));
0396 E500      1009            mov     a,_bp
0398 240D      1010            add     a,#0x0d
039A F8        1011            mov     r0,a
039B E500      1012            mov     a,_bp
039D 2410      1013            add     a,#0x10
039F F9        1014            mov     r1,a
03A0 740C      1015            mov     a,#0x0C
03A2 26        1016            add     a,@r0
03A3 F7        1017            mov     @r1,a
03A4 E4        1018            clr     a
03A5 08        1019            inc     r0
03A6 36        1020            addc    a,@r0
03A7 09        1021            inc     r1
03A8 F7        1022            mov     @r1,a
03A9 08        1023            inc     r0
03AA 09        1024            inc     r1
03AB E6        1025            mov     a,@r0
03AC F7        1026            mov     @r1,a
03AD E500      1027            mov     a,_bp
03AF 2410      1028            add     a,#0x10
03B1 F8        1029            mov     r0,a
03B2 8682      1030            mov     dpl,@r0
03B4 08        1031            inc     r0
03B5 8683      1032            mov     dph,@r0
03B7 08        1033            inc     r0
03B8 86F0      1034            mov     b,@r0
03BA E500      1035            mov     a,_bp
03BC 240D      1036            add     a,#0x0d
03BE F9        1037            mov     r1,a
03BF 120100    1038            lcall   __gptrget
03C2 F7        1039            mov     @r1,a
03C3 A3        1040            inc     dptr
03C4 120100    1041            lcall   __gptrget
03C7 09        1042            inc     r1
03C8 F7        1043            mov     @r1,a
03C9 A3        1044            inc     dptr
03CA 120100    1045            lcall   __gptrget
03CD 09        1046            inc     r1
03CE F7        1047            mov     @r1,a
03CF 0D        1048            inc     r5
03D0 BD0080    1049            cjne    r5,#0x00,L007031?
03D3 0E        1050            inc     r6
03D4           1051   L007031?:
03D4 8D00      1052            mov     _realloc_PARM_2,r5
03D6 EE        1053            mov     a,r6
03D7 C500      1054            xch     a,_realloc_PARM_2
03D9 25E0      1055            add     a,acc
03DB C500      1056            xch     a,_realloc_PARM_2
03DD 33        1057            rlc     a
03DE C500      1058            xch     a,_realloc_PARM_2
03E0 25E0      1059            add     a,acc
03E2 C500      1060            xch     a,_realloc_PARM_2
03E4 33        1061            rlc     a
03E5 F501      1062            mov     (_realloc_PARM_2 + 1),a
03E7 E500      1063            mov     a,_bp
03E9 240D      1064            add     a,#0x0d
03EB F8        1065            mov     r0,a
03EC 8682      1066            mov     dpl,@r0
03EE 08        1067            inc     r0
03EF 8683      1068            mov     dph,@r0
03F1 08        1069            inc     r0
03F2 86F0      1070            mov     b,@r0
03F4 C002      1071            push    ar2
03F6 C003      1072            push    ar3
03F8 C004      1073            push    ar4
03FA 120100    1074            lcall   _realloc
03FD AD82      1075            mov     r5,dpl
03FF AE83      1076            mov     r6,dph
0401 D004      1077            pop     ar4
0403 D003      1078            pop     ar3
0405 D002      1079            pop     ar2
0407 7F00      1080            mov     r7,#0x00
0409 E500      1081            mov     a,_bp
040B 2410      1082            add     a,#0x10
040D F8        1083            mov     r0,a
040E 8682      1084            mov     dpl,@r0
0410 08        1085            inc     r0
0411 8683      1086            mov     dph,@r0
0413 08        1087            inc     r0
0414 86F0      1088            mov     b,@r0
0416 ED        1089            mov     a,r5
0417 120100    1090            lcall   __gptrput
041A A3        1091            inc     dptr
041B EE        1092            mov     a,r6
041C 120100    1093            lcall   __gptrput
041F A3        1094            inc     dptr
0420 EF        1095            mov     a,r7
0421 120100    1096            lcall   __gptrput
0424           1097   ;        C:\Source\call51\Examples\c\gs.c:98: if((void *)syseq->eq[row].gij==NULL)
0424 8A82      1098            mov     dpl,r2
0426 8B83      1099            mov     dph,r3
0428 8CF0      1100            mov     b,r4
042A 120100    1101            lcall   __gptrget
042D FD        1102            mov     r5,a
042E A3        1103            inc     dptr
042F 120100    1104            lcall   __gptrget
0432 FE        1105            mov     r6,a
0433 A3        1106            inc     dptr
0434 120100    1107            lcall   __gptrget
0437 FF        1108            mov     r7,a
0438 E500      1109            mov     a,_bp
043A 2406      1110            add     a,#0x06
043C F8        1111            mov     r0,a
043D E6        1112            mov     a,@r0
043E 2D        1113            add     a,r5
043F FD        1114            mov     r5,a
0440 08        1115            inc     r0
0441 E6        1116            mov     a,@r0
0442 3E        1117            addc    a,r6
0443 FE        1118            mov     r6,a
0444 740C      1119            mov     a,#0x0C
0446 2D        1120            add     a,r5
0447 FD        1121            mov     r5,a
0448 E4        1122            clr     a
0449 3E        1123            addc    a,r6
044A FE        1124            mov     r6,a
044B 8D82      1125            mov     dpl,r5
044D 8E83      1126            mov     dph,r6
044F 8FF0      1127            mov     b,r7
0451 120100    1128            lcall   __gptrget
0454 FD        1129            mov     r5,a
0455 A3        1130            inc     dptr
0456 120100    1131            lcall   __gptrget
0459 FE        1132            mov     r6,a
045A A3        1133            inc     dptr
045B 120100    1134            lcall   __gptrget
045E FF        1135            mov     r7,a
045F BD0040    1136            cjne    r5,#0x00,L007008?
0462 BE0040    1137            cjne    r6,#0x00,L007008?
0465 BF0040    1138            cjne    r7,#0x00,L007008?
0468           1139   ;        C:\Source\call51\Examples\c\gs.c:100: printf("ERROR: not enough memory for 'gij' array.\n");
0468 C002      1140            push    ar2
046A C003      1141            push    ar3
046C C004      1142            push    ar4
046E 7480      1143            mov     a,#__str_0
0470 C0E0      1144            push    acc
0472 7487      1145            mov     a,#(__str_0 >> 8)
0474 C0E0      1146            push    acc
0476 7480      1147            mov     a,#0x80
0478 C0E0      1148            push    acc
047A 120100    1149            lcall   _printf
047D 1581      1150            dec     sp
047F 1581      1151            dec     sp
0481 1581      1152            dec     sp
0483 D004      1153            pop     ar4
0485 D003      1154            pop     ar3
0487 D002      1155            pop     ar2
0489           1156   L007008?:
0489           1157   ;        C:\Source\call51\Examples\c\gs.c:103: syseq->eq[row].eqn=realloc(syseq->eq[row].eqn, (syseq->eq[row].n+1)*sizeof(int));
0489 8A82      1158            mov     dpl,r2
048B 8B83      1159            mov     dph,r3
048D 8CF0      1160            mov     b,r4
048F 120100    1161            lcall   __gptrget
0492 FD        1162            mov     r5,a
0493 A3        1163            inc     dptr
0494 120100    1164            lcall   __gptrget
0497 FE        1165            mov     r6,a
0498 A3        1166            inc     dptr
0499 120100    1167            lcall   __gptrget
049C FF        1168            mov     r7,a
049D E500      1169            mov     a,_bp
049F 2406      1170            add     a,#0x06
04A1 F8        1171            mov     r0,a
04A2 E6        1172            mov     a,@r0
04A3 2D        1173            add     a,r5
04A4 FD        1174            mov     r5,a
04A5 08        1175            inc     r0
04A6 E6        1176            mov     a,@r0
04A7 3E        1177            addc    a,r6
04A8 FE        1178            mov     r6,a
04A9 E500      1179            mov     a,_bp
04AB 240D      1180            add     a,#0x0d
04AD F8        1181            mov     r0,a
04AE 740F      1182            mov     a,#0x0F
04B0 2D        1183            add     a,r5
04B1 F6        1184            mov     @r0,a
04B2 E4        1185            clr     a
04B3 3E        1186            addc    a,r6
04B4 08        1187            inc     r0
04B5 F6        1188            mov     @r0,a
04B6 08        1189            inc     r0
04B7 A607      1190            mov     @r0,ar7
04B9 E500      1191            mov     a,_bp
04BB 240D      1192            add     a,#0x0d
04BD F8        1193            mov     r0,a
04BE 8682      1194            mov     dpl,@r0
04C0 08        1195            inc     r0
04C1 8683      1196            mov     dph,@r0
04C3 08        1197            inc     r0
04C4 86F0      1198            mov     b,@r0
04C6 E500      1199            mov     a,_bp
04C8 240A      1200            add     a,#0x0a
04CA F9        1201            mov     r1,a
04CB 120100    1202            lcall   __gptrget
04CE F7        1203            mov     @r1,a
04CF A3        1204            inc     dptr
04D0 120100    1205            lcall   __gptrget
04D3 09        1206            inc     r1
04D4 F7        1207            mov     @r1,a
04D5 A3        1208            inc     dptr
04D6 120100    1209            lcall   __gptrget
04D9 09        1210            inc     r1
04DA F7        1211            mov     @r1,a
04DB 7412      1212            mov     a,#0x12
04DD 2D        1213            add     a,r5
04DE FD        1214            mov     r5,a
04DF E4        1215            clr     a
04E0 3E        1216            addc    a,r6
04E1 FE        1217            mov     r6,a
04E2 8D82      1218            mov     dpl,r5
04E4 8E83      1219            mov     dph,r6
04E6 8FF0      1220            mov     b,r7
04E8 120100    1221            lcall   __gptrget
04EB FD        1222            mov     r5,a
04EC A3        1223            inc     dptr
04ED 120100    1224            lcall   __gptrget
04F0 FE        1225            mov     r6,a
04F1 0D        1226            inc     r5
04F2 BD0000    1227            cjne    r5,#0x00,L007034?
04F5 0E        1228            inc     r6
04F6           1229   L007034?:
04F6 8D00      1230            mov     _realloc_PARM_2,r5
04F8 EE        1231            mov     a,r6
04F9 C500      1232            xch     a,_realloc_PARM_2
04FB 25E0      1233            add     a,acc
04FD C500      1234            xch     a,_realloc_PARM_2
04FF 33        1235            rlc     a
0500 F501      1236            mov     (_realloc_PARM_2 + 1),a
0502 E500      1237            mov     a,_bp
0504 240A      1238            add     a,#0x0a
0506 F8        1239            mov     r0,a
0507 8682      1240            mov     dpl,@r0
0509 08        1241            inc     r0
050A 8683      1242            mov     dph,@r0
050C 08        1243            inc     r0
050D 86F0      1244            mov     b,@r0
050F C002      1245            push    ar2
0511 C003      1246            push    ar3
0513 C004      1247            push    ar4
0515 120100    1248            lcall   _realloc
0518 AD82      1249            mov     r5,dpl
051A AE83      1250            mov     r6,dph
051C D004      1251            pop     ar4
051E D003      1252            pop     ar3
0520 D002      1253            pop     ar2
0522 7F00      1254            mov     r7,#0x00
0524 E500      1255            mov     a,_bp
0526 240D      1256            add     a,#0x0d
0528 F8        1257            mov     r0,a
0529 8682      1258            mov     dpl,@r0
052B 08        1259            inc     r0
052C 8683      1260            mov     dph,@r0
052E 08        1261            inc     r0
052F 86F0      1262            mov     b,@r0
0531 ED        1263            mov     a,r5
0532 120100    1264            lcall   __gptrput
0535 A3        1265            inc     dptr
0536 EE        1266            mov     a,r6
0537 120100    1267            lcall   __gptrput
053A A3        1268            inc     dptr
053B EF        1269            mov     a,r7
053C 120100    1270            lcall   __gptrput
053F           1271   ;        C:\Source\call51\Examples\c\gs.c:104: if((void *)syseq->eq[row].eqn==NULL)
053F 8A82      1272            mov     dpl,r2
0541 8B83      1273            mov     dph,r3
0543 8CF0      1274            mov     b,r4
0545 120100    1275            lcall   __gptrget
0548 FD        1276            mov     r5,a
0549 A3        1277            inc     dptr
054A 120100    1278            lcall   __gptrget
054D FE        1279            mov     r6,a
054E A3        1280            inc     dptr
054F 120100    1281            lcall   __gptrget
0552 FF        1282            mov     r7,a
0553 E500      1283            mov     a,_bp
0555 2406      1284            add     a,#0x06
0557 F8        1285            mov     r0,a
0558 E6        1286            mov     a,@r0
0559 2D        1287            add     a,r5
055A FD        1288            mov     r5,a
055B 08        1289            inc     r0
055C E6        1290            mov     a,@r0
055D 3E        1291            addc    a,r6
055E FE        1292            mov     r6,a
055F 740F      1293            mov     a,#0x0F
0561 2D        1294            add     a,r5
0562 FD        1295            mov     r5,a
0563 E4        1296            clr     a
0564 3E        1297            addc    a,r6
0565 FE        1298            mov     r6,a
0566 8D82      1299            mov     dpl,r5
0568 8E83      1300            mov     dph,r6
056A 8FF0      1301            mov     b,r7
056C 120100    1302            lcall   __gptrget
056F FD        1303            mov     r5,a
0570 A3        1304            inc     dptr
0571 120100    1305            lcall   __gptrget
0574 FE        1306            mov     r6,a
0575 A3        1307            inc     dptr
0576 120100    1308            lcall   __gptrget
0579 FF        1309            mov     r7,a
057A BD0040    1310            cjne    r5,#0x00,L007010?
057D BE0040    1311            cjne    r6,#0x00,L007010?
0580 BF0040    1312            cjne    r7,#0x00,L007010?
0583           1313   ;        C:\Source\call51\Examples\c\gs.c:106: printf("ERROR: not enough memory for 'eq' array.\n");
0583 C002      1314            push    ar2
0585 C003      1315            push    ar3
0587 C004      1316            push    ar4
0589 7480      1317            mov     a,#__str_1
058B C0E0      1318            push    acc
058D 7488      1319            mov     a,#(__str_1 >> 8)
058F C0E0      1320            push    acc
0591 7480      1321            mov     a,#0x80
0593 C0E0      1322            push    acc
0595 120100    1323            lcall   _printf
0598 1581      1324            dec     sp
059A 1581      1325            dec     sp
059C 1581      1326            dec     sp
059E D004      1327            pop     ar4
05A0 D003      1328            pop     ar3
05A2 D002      1329            pop     ar2
05A4           1330   L007010?:
05A4           1331   ;        C:\Source\call51\Examples\c\gs.c:110: syseq->eq[row].gij[syseq->eq[row].n]=value;
05A4 8A82      1332            mov     dpl,r2
05A6 8B83      1333            mov     dph,r3
05A8 8CF0      1334            mov     b,r4
05AA 120100    1335            lcall   __gptrget
05AD FA        1336            mov     r2,a
05AE A3        1337            inc     dptr
05AF 120100    1338            lcall   __gptrget
05B2 FB        1339            mov     r3,a
05B3 A3        1340            inc     dptr
05B4 120100    1341            lcall   __gptrget
05B7 FC        1342            mov     r4,a
05B8 E500      1343            mov     a,_bp
05BA 2406      1344            add     a,#0x06
05BC F8        1345            mov     r0,a
05BD E6        1346            mov     a,@r0
05BE 2A        1347            add     a,r2
05BF FA        1348            mov     r2,a
05C0 08        1349            inc     r0
05C1 E6        1350            mov     a,@r0
05C2 3B        1351            addc    a,r3
05C3 FB        1352            mov     r3,a
05C4 740C      1353            mov     a,#0x0C
05C6 2A        1354            add     a,r2
05C7 FD        1355            mov     r5,a
05C8 E4        1356            clr     a
05C9 3B        1357            addc    a,r3
05CA FE        1358            mov     r6,a
05CB 8C07      1359            mov     ar7,r4
05CD 8D82      1360            mov     dpl,r5
05CF 8E83      1361            mov     dph,r6
05D1 8FF0      1362            mov     b,r7
05D3 E500      1363            mov     a,_bp
05D5 2410      1364            add     a,#0x10
05D7 F8        1365            mov     r0,a
05D8 120100    1366            lcall   __gptrget
05DB F6        1367            mov     @r0,a
05DC A3        1368            inc     dptr
05DD 120100    1369            lcall   __gptrget
05E0 08        1370            inc     r0
05E1 F6        1371            mov     @r0,a
05E2 A3        1372            inc     dptr
05E3 120100    1373            lcall   __gptrget
05E6 08        1374            inc     r0
05E7 F6        1375            mov     @r0,a
05E8 E500      1376            mov     a,_bp
05EA 240D      1377            add     a,#0x0d
05EC F8        1378            mov     r0,a
05ED 7412      1379            mov     a,#0x12
05EF 2A        1380            add     a,r2
05F0 F6        1381            mov     @r0,a
05F1 E4        1382            clr     a
05F2 3B        1383            addc    a,r3
05F3 08        1384            inc     r0
05F4 F6        1385            mov     @r0,a
05F5 08        1386            inc     r0
05F6 A604      1387            mov     @r0,ar4
05F8 E500      1388            mov     a,_bp
05FA 240D      1389            add     a,#0x0d
05FC F8        1390            mov     r0,a
05FD 8682      1391            mov     dpl,@r0
05FF 08        1392            inc     r0
0600 8683      1393            mov     dph,@r0
0602 08        1394            inc     r0
0603 86F0      1395            mov     b,@r0
0605 E500      1396            mov     a,_bp
0607 240A      1397            add     a,#0x0a
0609 F9        1398            mov     r1,a
060A 120100    1399            lcall   __gptrget
060D F7        1400            mov     @r1,a
060E A3        1401            inc     dptr
060F 120100    1402            lcall   __gptrget
0612 09        1403            inc     r1
0613 F7        1404            mov     @r1,a
0614 E500      1405            mov     a,_bp
0616 240A      1406            add     a,#0x0a
0618 F8        1407            mov     r0,a
0619 8607      1408            mov     ar7,@r0
061B 08        1409            inc     r0
061C E6        1410            mov     a,@r0
061D CF        1411            xch     a,r7
061E 25E0      1412            add     a,acc
0620 CF        1413            xch     a,r7
0621 33        1414            rlc     a
0622 CF        1415            xch     a,r7
0623 25E0      1416            add     a,acc
0625 CF        1417            xch     a,r7
0626 33        1418            rlc     a
0627 FD        1419            mov     r5,a
0628 E500      1420            mov     a,_bp
062A 2410      1421            add     a,#0x10
062C F8        1422            mov     r0,a
062D EF        1423            mov     a,r7
062E 26        1424            add     a,@r0
062F FF        1425            mov     r7,a
0630 ED        1426            mov     a,r5
0631 08        1427            inc     r0
0632 36        1428            addc    a,@r0
0633 FD        1429            mov     r5,a
0634 08        1430            inc     r0
0635 8606      1431            mov     ar6,@r0
0637 8F82      1432            mov     dpl,r7
0639 8D83      1433            mov     dph,r5
063B 8EF0      1434            mov     b,r6
063D E500      1435            mov     a,_bp
063F 24F6      1436            add     a,#0xf6
0641 F8        1437            mov     r0,a
0642 E6        1438            mov     a,@r0
0643 120100    1439            lcall   __gptrput
0646 A3        1440            inc     dptr
0647 08        1441            inc     r0
0648 E6        1442            mov     a,@r0
0649 120100    1443            lcall   __gptrput
064C A3        1444            inc     dptr
064D 08        1445            inc     r0
064E E6        1446            mov     a,@r0
064F 120100    1447            lcall   __gptrput
0652 A3        1448            inc     dptr
0653 08        1449            inc     r0
0654 E6        1450            mov     a,@r0
0655 120100    1451            lcall   __gptrput
0658           1452   ;        C:\Source\call51\Examples\c\gs.c:111: syseq->eq[row].eqn[syseq->eq[row].n]=col;
0658 740F      1453            mov     a,#0x0F
065A 2A        1454            add     a,r2
065B FA        1455            mov     r2,a
065C E4        1456            clr     a
065D 3B        1457            addc    a,r3
065E FB        1458            mov     r3,a
065F 8A82      1459            mov     dpl,r2
0661 8B83      1460            mov     dph,r3
0663 8CF0      1461            mov     b,r4
0665 120100    1462            lcall   __gptrget
0668 FA        1463            mov     r2,a
0669 A3        1464            inc     dptr
066A 120100    1465            lcall   __gptrget
066D FB        1466            mov     r3,a
066E A3        1467            inc     dptr
066F 120100    1468            lcall   __gptrget
0672 FC        1469            mov     r4,a
0673 E500      1470            mov     a,_bp
0675 240A      1471            add     a,#0x0a
0677 F8        1472            mov     r0,a
0678 8605      1473            mov     ar5,@r0
067A 08        1474            inc     r0
067B E6        1475            mov     a,@r0
067C CD        1476            xch     a,r5
067D 25E0      1477            add     a,acc
067F CD        1478            xch     a,r5
0680 33        1479            rlc     a
0681 FE        1480            mov     r6,a
0682 ED        1481            mov     a,r5
0683 2A        1482            add     a,r2
0684 FA        1483            mov     r2,a
0685 EE        1484            mov     a,r6
0686 3B        1485            addc    a,r3
0687 FB        1486            mov     r3,a
0688 8A82      1487            mov     dpl,r2
068A 8B83      1488            mov     dph,r3
068C 8CF0      1489            mov     b,r4
068E E500      1490            mov     a,_bp
0690 24FA      1491            add     a,#0xfa
0692 F8        1492            mov     r0,a
0693 E6        1493            mov     a,@r0
0694 120100    1494            lcall   __gptrput
0697 A3        1495            inc     dptr
0698 08        1496            inc     r0
0699 E6        1497            mov     a,@r0
069A 120100    1498            lcall   __gptrput
069D           1499   ;        C:\Source\call51\Examples\c\gs.c:112: syseq->eq[row].n++;
069D E500      1500            mov     a,_bp
069F 240A      1501            add     a,#0x0a
06A1 F8        1502            mov     r0,a
06A2 7401      1503            mov     a,#0x01
06A4 26        1504            add     a,@r0
06A5 FA        1505            mov     r2,a
06A6 E4        1506            clr     a
06A7 08        1507            inc     r0
06A8 36        1508            addc    a,@r0
06A9 FB        1509            mov     r3,a
06AA E500      1510            mov     a,_bp
06AC 240D      1511            add     a,#0x0d
06AE F8        1512            mov     r0,a
06AF 8682      1513            mov     dpl,@r0
06B1 08        1514            inc     r0
06B2 8683      1515            mov     dph,@r0
06B4 08        1516            inc     r0
06B5 86F0      1517            mov     b,@r0
06B7 EA        1518            mov     a,r2
06B8 120100    1519            lcall   __gptrput
06BB A3        1520            inc     dptr
06BC EB        1521            mov     a,r3
06BD 120100    1522            lcall   __gptrput
06C0           1523   L007015?:
06C0 850081    1524            mov     sp,_bp
06C3 D000      1525            pop     _bp
06C5 22        1526            ret
06C6           1527   ;------------------------------------------------------------
06C6           1528   ;Allocation info for local variables in function 'create_syseq'
06C6           1529   ;------------------------------------------------------------
06C6           1530   ;maxiter                   Allocated to stack - offset -4
06C6           1531   ;tol                       Allocated to stack - offset -8
06C6           1532   ;alpha                     Allocated to stack - offset -12
06C6           1533   ;order                     Allocated to stack - offset 1
06C6           1534   ;j                         Allocated to stack - offset 3
06C6           1535   ;syseq                     Allocated to stack - offset 5
06C6           1536   ;sloc0                     Allocated to stack - offset 8
06C6           1537   ;------------------------------------------------------------
06C6           1538   ;        C:\Source\call51\Examples\c\gs.c:116: _syseq * create_syseq(int order, int maxiter, double tol, double alpha) reentrant
06C6           1539   ;        -----------------------------------------
06C6           1540   ;         function create_syseq
06C6           1541   ;        -----------------------------------------
06C6           1542   _create_syseq:
06C6 C000      1543            push    _bp
06C8 858100    1544            mov     _bp,sp
06CB C082      1545            push    dpl
06CD C083      1546            push    dph
06CF E581      1547            mov     a,sp
06D1 2409      1548            add     a,#0x09
06D3 F581      1549            mov     sp,a
06D5           1550   ;        C:\Source\call51\Examples\c\gs.c:121: syseq=malloc(sizeof(_syseq));
06D5 900013    1551            mov     dptr,#0x0013
06D8 120100    1552            lcall   _malloc
06DB AC82      1553            mov     r4,dpl
06DD AD83      1554            mov     r5,dph
06DF E500      1555            mov     a,_bp
06E1 2405      1556            add     a,#0x05
06E3 F8        1557            mov     r0,a
06E4 A604      1558            mov     @r0,ar4
06E6 08        1559            inc     r0
06E7 A605      1560            mov     @r0,ar5
06E9 08        1561            inc     r0
06EA 7600      1562            mov     @r0,#0x00
06EC           1563   ;        C:\Source\call51\Examples\c\gs.c:122: if(syseq==NULL)
06EC E500      1564            mov     a,_bp
06EE 2405      1565            add     a,#0x05
06F0 F8        1566            mov     r0,a
06F1 B60000    1567            cjne    @r0,#0x00,L008002?
06F4 08        1568            inc     r0
06F5 B60000    1569            cjne    @r0,#0x00,L008002?
06F8 08        1570            inc     r0
06F9 B60000    1571            cjne    @r0,#0x00,L008002?
06FC           1572   ;        C:\Source\call51\Examples\c\gs.c:124: printf("ERROR: not enough memory for system of equations.\n");
06FC 7440      1573            mov     a,#__str_2
06FE C0E0      1574            push    acc
0700 7489      1575            mov     a,#(__str_2 >> 8)
0702 C0E0      1576            push    acc
0704 7480      1577            mov     a,#0x80
0706 C0E0      1578            push    acc
0708 120100    1579            lcall   _printf
070B 1581      1580            dec     sp
070D 1581      1581            dec     sp
070F 1581      1582            dec     sp
0711           1583   ;        C:\Source\call51\Examples\c\gs.c:125: exit(1);
0711 900001    1584            mov     dptr,#0x0001
0714 120100    1585            lcall   _exit
0717           1586   L008002?:
0717           1587   ;        C:\Source\call51\Examples\c\gs.c:128: syseq->eq=malloc(order*sizeof(_eq));
0717 E500      1588            mov     a,_bp
0719 2405      1589            add     a,#0x05
071B F8        1590            mov     r0,a
071C 7410      1591            mov     a,#0x10
071E 26        1592            add     a,@r0
071F FF        1593            mov     r7,a
0720 E4        1594            clr     a
0721 08        1595            inc     r0
0722 36        1596            addc    a,@r0
0723 FA        1597            mov     r2,a
0724 08        1598            inc     r0
0725 8603      1599            mov     ar3,@r0
0727 A800      1600            mov     r0,_bp
0729 08        1601            inc     r0
072A 8600      1602            mov     __mulint_PARM_2,@r0
072C 08        1603            inc     r0
072D 8601      1604            mov     (__mulint_PARM_2 + 1),@r0
072F 900014    1605            mov     dptr,#0x0014
0732 C002      1606            push    ar2
0734 C003      1607            push    ar3
0736 C007      1608            push    ar7
0738 120100    1609            lcall   __mulint
073B 120100    1610            lcall   _malloc
073E AC82      1611            mov     r4,dpl
0740 AD83      1612            mov     r5,dph
0742 D007      1613            pop     ar7
0744 D003      1614            pop     ar3
0746 D002      1615            pop     ar2
0748 7E00      1616            mov     r6,#0x00
074A 8F82      1617            mov     dpl,r7
074C 8A83      1618            mov     dph,r2
074E 8BF0      1619            mov     b,r3
0750 EC        1620            mov     a,r4
0751 120100    1621            lcall   __gptrput
0754 A3        1622            inc     dptr
0755 ED        1623            mov     a,r5
0756 120100    1624            lcall   __gptrput
0759 A3        1625            inc     dptr
075A EE        1626            mov     a,r6
075B 120100    1627            lcall   __gptrput
075E           1628   ;        C:\Source\call51\Examples\c\gs.c:129: if(syseq->eq==NULL)
075E BC0080    1629            cjne    r4,#0x00,L008004?
0761 BD0080    1630            cjne    r5,#0x00,L008004?
0764 BE0080    1631            cjne    r6,#0x00,L008004?
0767           1632   ;        C:\Source\call51\Examples\c\gs.c:131: printf("ERROR: not enough memory for equation.\n");
0767 C002      1633            push    ar2
0769 C003      1634            push    ar3
076B C007      1635            push    ar7
076D 74C0      1636            mov     a,#__str_3
076F C0E0      1637            push    acc
0771 7489      1638            mov     a,#(__str_3 >> 8)
0773 C0E0      1639            push    acc
0775 7480      1640            mov     a,#0x80
0777 C0E0      1641            push    acc
0779 120100    1642            lcall   _printf
077C 1581      1643            dec     sp
077E 1581      1644            dec     sp
0780 1581      1645            dec     sp
0782           1646   ;        C:\Source\call51\Examples\c\gs.c:132: exit(1);
0782 900001    1647            mov     dptr,#0x0001
0785 120100    1648            lcall   _exit
0788 D007      1649            pop     ar7
078A D003      1650            pop     ar3
078C D002      1651            pop     ar2
078E           1652   L008004?:
078E           1653   ;        C:\Source\call51\Examples\c\gs.c:135: syseq->order=order;
078E E500      1654            mov     a,_bp
0790 2405      1655            add     a,#0x05
0792 F8        1656            mov     r0,a
0793 8682      1657            mov     dpl,@r0
0795 08        1658            inc     r0
0796 8683      1659            mov     dph,@r0
0798 08        1660            inc     r0
0799 86F0      1661            mov     b,@r0
079B A900      1662            mov     r1,_bp
079D 09        1663            inc     r1
079E E7        1664            mov     a,@r1
079F 120100    1665            lcall   __gptrput
07A2 A3        1666            inc     dptr
07A3 09        1667            inc     r1
07A4 E7        1668            mov     a,@r1
07A5 120100    1669            lcall   __gptrput
07A8           1670   ;        C:\Source\call51\Examples\c\gs.c:136: syseq->alpha=alpha;
07A8 E500      1671            mov     a,_bp
07AA 2405      1672            add     a,#0x05
07AC F8        1673            mov     r0,a
07AD 740A      1674            mov     a,#0x0A
07AF 26        1675            add     a,@r0
07B0 FC        1676            mov     r4,a
07B1 E4        1677            clr     a
07B2 08        1678            inc     r0
07B3 36        1679            addc    a,@r0
07B4 FD        1680            mov     r5,a
07B5 08        1681            inc     r0
07B6 8606      1682            mov     ar6,@r0
07B8 8C82      1683            mov     dpl,r4
07BA 8D83      1684            mov     dph,r5
07BC 8EF0      1685            mov     b,r6
07BE E500      1686            mov     a,_bp
07C0 24F4      1687            add     a,#0xf4
07C2 F8        1688            mov     r0,a
07C3 E6        1689            mov     a,@r0
07C4 120100    1690            lcall   __gptrput
07C7 A3        1691            inc     dptr
07C8 08        1692            inc     r0
07C9 E6        1693            mov     a,@r0
07CA 120100    1694            lcall   __gptrput
07CD A3        1695            inc     dptr
07CE 08        1696            inc     r0
07CF E6        1697            mov     a,@r0
07D0 120100    1698            lcall   __gptrput
07D3 A3        1699            inc     dptr
07D4 08        1700            inc     r0
07D5 E6        1701            mov     a,@r0
07D6 120100    1702            lcall   __gptrput
07D9           1703   ;        C:\Source\call51\Examples\c\gs.c:137: syseq->maxiter=maxiter;
07D9 E500      1704            mov     a,_bp
07DB 2405      1705            add     a,#0x05
07DD F8        1706            mov     r0,a
07DE 7402      1707            mov     a,#0x02
07E0 26        1708            add     a,@r0
07E1 FC        1709            mov     r4,a
07E2 E4        1710            clr     a
07E3 08        1711            inc     r0
07E4 36        1712            addc    a,@r0
07E5 FD        1713            mov     r5,a
07E6 08        1714            inc     r0
07E7 8606      1715            mov     ar6,@r0
07E9 8C82      1716            mov     dpl,r4
07EB 8D83      1717            mov     dph,r5
07ED 8EF0      1718            mov     b,r6
07EF E500      1719            mov     a,_bp
07F1 24FC      1720            add     a,#0xfc
07F3 F8        1721            mov     r0,a
07F4 E6        1722            mov     a,@r0
07F5 120100    1723            lcall   __gptrput
07F8 A3        1724            inc     dptr
07F9 08        1725            inc     r0
07FA E6        1726            mov     a,@r0
07FB 120100    1727            lcall   __gptrput
07FE           1728   ;        C:\Source\call51\Examples\c\gs.c:138: syseq->tol=tol;
07FE E500      1729            mov     a,_bp
0800 2405      1730            add     a,#0x05
0802 F8        1731            mov     r0,a
0803 7406      1732            mov     a,#0x06
0805 26        1733            add     a,@r0
0806 FC        1734            mov     r4,a
0807 E4        1735            clr     a
0808 08        1736            inc     r0
0809 36        1737            addc    a,@r0
080A FD        1738            mov     r5,a
080B 08        1739            inc     r0
080C 8606      1740            mov     ar6,@r0
080E 8C82      1741            mov     dpl,r4
0810 8D83      1742            mov     dph,r5
0812 8EF0      1743            mov     b,r6
0814 E500      1744            mov     a,_bp
0816 24F8      1745            add     a,#0xf8
0818 F8        1746            mov     r0,a
0819 E6        1747            mov     a,@r0
081A 120100    1748            lcall   __gptrput
081D A3        1749            inc     dptr
081E 08        1750            inc     r0
081F E6        1751            mov     a,@r0
0820 120100    1752            lcall   __gptrput
0823 A3        1753            inc     dptr
0824 08        1754            inc     r0
0825 E6        1755            mov     a,@r0
0826 120100    1756            lcall   __gptrput
0829 A3        1757            inc     dptr
082A 08        1758            inc     r0
082B E6        1759            mov     a,@r0
082C 120100    1760            lcall   __gptrput
082F           1761   ;        C:\Source\call51\Examples\c\gs.c:139: syseq->debug=0;
082F E500      1762            mov     a,_bp
0831 2405      1763            add     a,#0x05
0833 F8        1764            mov     r0,a
0834 740E      1765            mov     a,#0x0E
0836 26        1766            add     a,@r0
0837 FC        1767            mov     r4,a
0838 E4        1768            clr     a
0839 08        1769            inc     r0
083A 36        1770            addc    a,@r0
083B FD        1771            mov     r5,a
083C 08        1772            inc     r0
083D 8606      1773            mov     ar6,@r0
083F 8C82      1774            mov     dpl,r4
0841 8D83      1775            mov     dph,r5
0843 8EF0      1776            mov     b,r6
0845 E4        1777            clr     a
0846 120100    1778            lcall   __gptrput
0849 A3        1779            inc     dptr
084A E4        1780            clr     a
084B 120100    1781            lcall   __gptrput
084E           1782   ;        C:\Source\call51\Examples\c\gs.c:141: for(j=0; j<order; j++)
084E E500      1783            mov     a,_bp
0850 2403      1784            add     a,#0x03
0852 F8        1785            mov     r0,a
0853 E4        1786            clr     a
0854 F6        1787            mov     @r0,a
0855 08        1788            inc     r0
0856 F6        1789            mov     @r0,a
0857 E500      1790            mov     a,_bp
0859 2408      1791            add     a,#0x08
085B F8        1792            mov     r0,a
085C E4        1793            clr     a
085D F6        1794            mov     @r0,a
085E 08        1795            inc     r0
085F F6        1796            mov     @r0,a
0860           1797   L008005?:
0860 E500      1798            mov     a,_bp
0862 2403      1799            add     a,#0x03
0864 F8        1800            mov     r0,a
0865 A900      1801            mov     r1,_bp
0867 09        1802            inc     r1
0868 C3        1803            clr     c
0869 E6        1804            mov     a,@r0
086A 97        1805            subb    a,@r1
086B 08        1806            inc     r0
086C E6        1807            mov     a,@r0
086D 6480      1808            xrl     a,#0x80
086F 09        1809            inc     r1
0870 87F0      1810            mov     b,@r1
0872 63F080    1811            xrl     b,#0x80
0875 95F0      1812            subb    a,b
0877 4001      1813            jc      L008020?
0879 020100    1814            ljmp    L008008?
087C           1815   L008020?:
087C           1816   ;        C:\Source\call51\Examples\c\gs.c:143: syseq->eq[j].gij=NULL;
087C 8F82      1817            mov     dpl,r7
087E 8A83      1818            mov     dph,r2
0880 8BF0      1819            mov     b,r3
0882 120100    1820            lcall   __gptrget
0885 FE        1821            mov     r6,a
0886 A3        1822            inc     dptr
0887 120100    1823            lcall   __gptrget
088A FC        1824            mov     r4,a
088B A3        1825            inc     dptr
088C 120100    1826            lcall   __gptrget
088F FD        1827            mov     r5,a
0890 E500      1828            mov     a,_bp
0892 2408      1829            add     a,#0x08
0894 F8        1830            mov     r0,a
0895 E6        1831            mov     a,@r0
0896 2E        1832            add     a,r6
0897 FE        1833            mov     r6,a
0898 08        1834            inc     r0
0899 E6        1835            mov     a,@r0
089A 3C        1836            addc    a,r4
089B FC        1837            mov     r4,a
089C 740C      1838            mov     a,#0x0C
089E 2E        1839            add     a,r6
089F FE        1840            mov     r6,a
08A0 E4        1841            clr     a
08A1 3C        1842            addc    a,r4
08A2 FC        1843            mov     r4,a
08A3 8E82      1844            mov     dpl,r6
08A5 8C83      1845            mov     dph,r4
08A7 8DF0      1846            mov     b,r5
08A9 E4        1847            clr     a
08AA 120100    1848            lcall   __gptrput
08AD A3        1849            inc     dptr
08AE E4        1850            clr     a
08AF 120100    1851            lcall   __gptrput
08B2 A3        1852            inc     dptr
08B3 E4        1853            clr     a
08B4 120100    1854            lcall   __gptrput
08B7           1855   ;        C:\Source\call51\Examples\c\gs.c:144: syseq->eq[j].eqn=NULL;
08B7 8F82      1856            mov     dpl,r7
08B9 8A83      1857            mov     dph,r2
08BB 8BF0      1858            mov     b,r3
08BD 120100    1859            lcall   __gptrget
08C0 FC        1860            mov     r4,a
08C1 A3        1861            inc     dptr
08C2 120100    1862            lcall   __gptrget
08C5 FD        1863            mov     r5,a
08C6 A3        1864            inc     dptr
08C7 120100    1865            lcall   __gptrget
08CA FE        1866            mov     r6,a
08CB E500      1867            mov     a,_bp
08CD 2408      1868            add     a,#0x08
08CF F8        1869            mov     r0,a
08D0 E6        1870            mov     a,@r0
08D1 2C        1871            add     a,r4
08D2 FC        1872            mov     r4,a
08D3 08        1873            inc     r0
08D4 E6        1874            mov     a,@r0
08D5 3D        1875            addc    a,r5
08D6 FD        1876            mov     r5,a
08D7 740F      1877            mov     a,#0x0F
08D9 2C        1878            add     a,r4
08DA FC        1879            mov     r4,a
08DB E4        1880            clr     a
08DC 3D        1881            addc    a,r5
08DD FD        1882            mov     r5,a
08DE 8C82      1883            mov     dpl,r4
08E0 8D83      1884            mov     dph,r5
08E2 8EF0      1885            mov     b,r6
08E4 E4        1886            clr     a
08E5 120100    1887            lcall   __gptrput
08E8 A3        1888            inc     dptr
08E9 E4        1889            clr     a
08EA 120100    1890            lcall   __gptrput
08ED A3        1891            inc     dptr
08EE E4        1892            clr     a
08EF 120100    1893            lcall   __gptrput
08F2           1894   ;        C:\Source\call51\Examples\c\gs.c:145: syseq->eq[j].n=0;
08F2 8F82      1895            mov     dpl,r7
08F4 8A83      1896            mov     dph,r2
08F6 8BF0      1897            mov     b,r3
08F8 120100    1898            lcall   __gptrget
08FB FC        1899            mov     r4,a
08FC A3        1900            inc     dptr
08FD 120100    1901            lcall   __gptrget
0900 FD        1902            mov     r5,a
0901 A3        1903            inc     dptr
0902 120100    1904            lcall   __gptrget
0905 FE        1905            mov     r6,a
0906 E500      1906            mov     a,_bp
0908 2408      1907            add     a,#0x08
090A F8        1908            mov     r0,a
090B E6        1909            mov     a,@r0
090C 2C        1910            add     a,r4
090D FC        1911            mov     r4,a
090E 08        1912            inc     r0
090F E6        1913            mov     a,@r0
0910 3D        1914            addc    a,r5
0911 FD        1915            mov     r5,a
0912 7412      1916            mov     a,#0x12
0914 2C        1917            add     a,r4
0915 FC        1918            mov     r4,a
0916 E4        1919            clr     a
0917 3D        1920            addc    a,r5
0918 FD        1921            mov     r5,a
0919 8C82      1922            mov     dpl,r4
091B 8D83      1923            mov     dph,r5
091D 8EF0      1924            mov     b,r6
091F E4        1925            clr     a
0920 120100    1926            lcall   __gptrput
0923 A3        1927            inc     dptr
0924 E4        1928            clr     a
0925 120100    1929            lcall   __gptrput
0928           1930   ;        C:\Source\call51\Examples\c\gs.c:146: syseq->eq[j].x=0;
0928 8F82      1931            mov     dpl,r7
092A 8A83      1932            mov     dph,r2
092C 8BF0      1933            mov     b,r3
092E 120100    1934            lcall   __gptrget
0931 FC        1935            mov     r4,a
0932 A3        1936            inc     dptr
0933 120100    1937            lcall   __gptrget
0936 FD        1938            mov     r5,a
0937 A3        1939            inc     dptr
0938 120100    1940            lcall   __gptrget
093B FE        1941            mov     r6,a
093C E500      1942            mov     a,_bp
093E 2408      1943            add     a,#0x08
0940 F8        1944            mov     r0,a
0941 E6        1945            mov     a,@r0
0942 2C        1946            add     a,r4
0943 FC        1947            mov     r4,a
0944 08        1948            inc     r0
0945 E6        1949            mov     a,@r0
0946 3D        1950            addc    a,r5
0947 FD        1951            mov     r5,a
0948 7408      1952            mov     a,#0x08
094A 2C        1953            add     a,r4
094B FC        1954            mov     r4,a
094C E4        1955            clr     a
094D 3D        1956            addc    a,r5
094E FD        1957            mov     r5,a
094F 8C82      1958            mov     dpl,r4
0951 8D83      1959            mov     dph,r5
0953 8EF0      1960            mov     b,r6
0955 E4        1961            clr     a
0956 120100    1962            lcall   __gptrput
0959 A3        1963            inc     dptr
095A E4        1964            clr     a
095B 120100    1965            lcall   __gptrput
095E A3        1966            inc     dptr
095F E4        1967            clr     a
0960 120100    1968            lcall   __gptrput
0963 A3        1969            inc     dptr
0964 E4        1970            clr     a
0965 120100    1971            lcall   __gptrput
0968           1972   ;        C:\Source\call51\Examples\c\gs.c:147: syseq->eq[j].b=0;
0968 8F82      1973            mov     dpl,r7
096A 8A83      1974            mov     dph,r2
096C 8BF0      1975            mov     b,r3
096E 120100    1976            lcall   __gptrget
0971 FC        1977            mov     r4,a
0972 A3        1978            inc     dptr
0973 120100    1979            lcall   __gptrget
0976 FD        1980            mov     r5,a
0977 A3        1981            inc     dptr
0978 120100    1982            lcall   __gptrget
097B FE        1983            mov     r6,a
097C E500      1984            mov     a,_bp
097E 2408      1985            add     a,#0x08
0980 F8        1986            mov     r0,a
0981 E6        1987            mov     a,@r0
0982 2C        1988            add     a,r4
0983 FC        1989            mov     r4,a
0984 08        1990            inc     r0
0985 E6        1991            mov     a,@r0
0986 3D        1992            addc    a,r5
0987 FD        1993            mov     r5,a
0988 8C82      1994            mov     dpl,r4
098A 8D83      1995            mov     dph,r5
098C 8EF0      1996            mov     b,r6
098E E4        1997            clr     a
098F 120100    1998            lcall   __gptrput
0992 A3        1999            inc     dptr
0993 E4        2000            clr     a
0994 120100    2001            lcall   __gptrput
0997 A3        2002            inc     dptr
0998 E4        2003            clr     a
0999 120100    2004            lcall   __gptrput
099C A3        2005            inc     dptr
099D E4        2006            clr     a
099E 120100    2007            lcall   __gptrput
09A1           2008   ;        C:\Source\call51\Examples\c\gs.c:148: syseq->eq[j].g=0;
09A1 8F82      2009            mov     dpl,r7
09A3 8A83      2010            mov     dph,r2
09A5 8BF0      2011            mov     b,r3
09A7 120100    2012            lcall   __gptrget
09AA FC        2013            mov     r4,a
09AB A3        2014            inc     dptr
09AC 120100    2015            lcall   __gptrget
09AF FD        2016            mov     r5,a
09B0 A3        2017            inc     dptr
09B1 120100    2018            lcall   __gptrget
09B4 FE        2019            mov     r6,a
09B5 E500      2020            mov     a,_bp
09B7 2408      2021            add     a,#0x08
09B9 F8        2022            mov     r0,a
09BA E6        2023            mov     a,@r0
09BB 2C        2024            add     a,r4
09BC FC        2025            mov     r4,a
09BD 08        2026            inc     r0
09BE E6        2027            mov     a,@r0
09BF 3D        2028            addc    a,r5
09C0 FD        2029            mov     r5,a
09C1 7404      2030            mov     a,#0x04
09C3 2C        2031            add     a,r4
09C4 FC        2032            mov     r4,a
09C5 E4        2033            clr     a
09C6 3D        2034            addc    a,r5
09C7 FD        2035            mov     r5,a
09C8 8C82      2036            mov     dpl,r4
09CA 8D83      2037            mov     dph,r5
09CC 8EF0      2038            mov     b,r6
09CE E4        2039            clr     a
09CF 120100    2040            lcall   __gptrput
09D2 A3        2041            inc     dptr
09D3 E4        2042            clr     a
09D4 120100    2043            lcall   __gptrput
09D7 A3        2044            inc     dptr
09D8 E4        2045            clr     a
09D9 120100    2046            lcall   __gptrput
09DC A3        2047            inc     dptr
09DD E4        2048            clr     a
09DE 120100    2049            lcall   __gptrput
09E1           2050   ;        C:\Source\call51\Examples\c\gs.c:141: for(j=0; j<order; j++)
09E1 E500      2051            mov     a,_bp
09E3 2408      2052            add     a,#0x08
09E5 F8        2053            mov     r0,a
09E6 7414      2054            mov     a,#0x14
09E8 26        2055            add     a,@r0
09E9 F6        2056            mov     @r0,a
09EA E4        2057            clr     a
09EB 08        2058            inc     r0
09EC 36        2059            addc    a,@r0
09ED F6        2060            mov     @r0,a
09EE E500      2061            mov     a,_bp
09F0 2403      2062            add     a,#0x03
09F2 F8        2063            mov     r0,a
09F3 06        2064            inc     @r0
09F4 B600C0    2065            cjne    @r0,#0x00,L008021?
09F7 08        2066            inc     r0
09F8 06        2067            inc     @r0
09F9           2068   L008021?:
09F9 020100    2069            ljmp    L008005?
09FC           2070   L008008?:
09FC           2071   ;        C:\Source\call51\Examples\c\gs.c:150: return syseq;
09FC E500      2072            mov     a,_bp
09FE 2405      2073            add     a,#0x05
0A00 F8        2074            mov     r0,a
0A01 8682      2075            mov     dpl,@r0
0A03 08        2076            inc     r0
0A04 8683      2077            mov     dph,@r0
0A06 08        2078            inc     r0
0A07 86F0      2079            mov     b,@r0
0A09 850081    2080            mov     sp,_bp
0A0C D000      2081            pop     _bp
0A0E 22        2082            ret
0A0F           2083   ;------------------------------------------------------------
0A0F           2084   ;Allocation info for local variables in function 'free_syseq'
0A0F           2085   ;------------------------------------------------------------
0A0F           2086   ;syseq                     Allocated to registers r2 r3 r4 
0A0F           2087   ;j                         Allocated to stack - offset 1
0A0F           2088   ;sloc0                     Allocated to stack - offset 3
0A0F           2089   ;------------------------------------------------------------
0A0F           2090   ;        C:\Source\call51\Examples\c\gs.c:154: void free_syseq(_syseq * syseq) reentrant
0A0F           2091   ;        -----------------------------------------
0A0F           2092   ;         function free_syseq
0A0F           2093   ;        -----------------------------------------
0A0F           2094   _free_syseq:
0A0F C000      2095            push    _bp
0A11 E581      2096            mov     a,sp
0A13 F500      2097            mov     _bp,a
0A15 2404      2098            add     a,#0x04
0A17 F581      2099            mov     sp,a
0A19 AA82      2100            mov     r2,dpl
0A1B AB83      2101            mov     r3,dph
0A1D ACF0      2102            mov     r4,b
0A1F           2103   ;        C:\Source\call51\Examples\c\gs.c:157: for(j=0; j<syseq->order; j++)
0A1F 7410      2104            mov     a,#0x10
0A21 2A        2105            add     a,r2
0A22 FD        2106            mov     r5,a
0A23 E4        2107            clr     a
0A24 3B        2108            addc    a,r3
0A25 FE        2109            mov     r6,a
0A26 8C07      2110            mov     ar7,r4
0A28 A800      2111            mov     r0,_bp
0A2A 08        2112            inc     r0
0A2B E4        2113            clr     a
0A2C F6        2114            mov     @r0,a
0A2D 08        2115            inc     r0
0A2E F6        2116            mov     @r0,a
0A2F E500      2117            mov     a,_bp
0A31 2403      2118            add     a,#0x03
0A33 F8        2119            mov     r0,a
0A34 E4        2120            clr     a
0A35 F6        2121            mov     @r0,a
0A36 08        2122            inc     r0
0A37 F6        2123            mov     @r0,a
0A38           2124   L009001?:
0A38 C005      2125            push    ar5
0A3A C006      2126            push    ar6
0A3C C007      2127            push    ar7
0A3E 8A82      2128            mov     dpl,r2
0A40 8B83      2129            mov     dph,r3
0A42 8CF0      2130            mov     b,r4
0A44 120100    2131            lcall   __gptrget
0A47 FD        2132            mov     r5,a
0A48 A3        2133            inc     dptr
0A49 120100    2134            lcall   __gptrget
0A4C FE        2135            mov     r6,a
0A4D A800      2136            mov     r0,_bp
0A4F 08        2137            inc     r0
0A50 C3        2138            clr     c
0A51 E6        2139            mov     a,@r0
0A52 9D        2140            subb    a,r5
0A53 08        2141            inc     r0
0A54 E6        2142            mov     a,@r0
0A55 6480      2143            xrl     a,#0x80
0A57 8EF0      2144            mov     b,r6
0A59 63F080    2145            xrl     b,#0x80
0A5C 95F0      2146            subb    a,b
0A5E D007      2147            pop     ar7
0A60 D006      2148            pop     ar6
0A62 D005      2149            pop     ar5
0A64 4001      2150            jc      L009010?
0A66 020100    2151            ljmp    L009005?
0A69           2152   L009010?:
0A69           2153   ;        C:\Source\call51\Examples\c\gs.c:159: free(syseq->eq[j].gij);
0A69 C002      2154            push    ar2
0A6B C003      2155            push    ar3
0A6D C004      2156            push    ar4
0A6F 8D82      2157            mov     dpl,r5
0A71 8E83      2158            mov     dph,r6
0A73 8FF0      2159            mov     b,r7
0A75 120100    2160            lcall   __gptrget
0A78 FA        2161            mov     r2,a
0A79 A3        2162            inc     dptr
0A7A 120100    2163            lcall   __gptrget
0A7D FB        2164            mov     r3,a
0A7E A3        2165            inc     dptr
0A7F 120100    2166            lcall   __gptrget
0A82 FC        2167            mov     r4,a
0A83 E500      2168            mov     a,_bp
0A85 2403      2169            add     a,#0x03
0A87 F8        2170            mov     r0,a
0A88 E6        2171            mov     a,@r0
0A89 2A        2172            add     a,r2
0A8A FA        2173            mov     r2,a
0A8B 08        2174            inc     r0
0A8C E6        2175            mov     a,@r0
0A8D 3B        2176            addc    a,r3
0A8E FB        2177            mov     r3,a
0A8F 740C      2178            mov     a,#0x0C
0A91 2A        2179            add     a,r2
0A92 FA        2180            mov     r2,a
0A93 E4        2181            clr     a
0A94 3B        2182            addc    a,r3
0A95 FB        2183            mov     r3,a
0A96 8A82      2184            mov     dpl,r2
0A98 8B83      2185            mov     dph,r3
0A9A 8CF0      2186            mov     b,r4
0A9C 120100    2187            lcall   __gptrget
0A9F FA        2188            mov     r2,a
0AA0 A3        2189            inc     dptr
0AA1 120100    2190            lcall   __gptrget
0AA4 FB        2191            mov     r3,a
0AA5 A3        2192            inc     dptr
0AA6 120100    2193            lcall   __gptrget
0AA9 FC        2194            mov     r4,a
0AAA 8A82      2195            mov     dpl,r2
0AAC 8B83      2196            mov     dph,r3
0AAE 8CF0      2197            mov     b,r4
0AB0 C002      2198            push    ar2
0AB2 C003      2199            push    ar3
0AB4 C004      2200            push    ar4
0AB6 C005      2201            push    ar5
0AB8 C006      2202            push    ar6
0ABA C007      2203            push    ar7
0ABC 120100    2204            lcall   _free
0ABF D007      2205            pop     ar7
0AC1 D006      2206            pop     ar6
0AC3 D005      2207            pop     ar5
0AC5 D004      2208            pop     ar4
0AC7 D003      2209            pop     ar3
0AC9 D002      2210            pop     ar2
0ACB           2211   ;        C:\Source\call51\Examples\c\gs.c:160: free(syseq->eq[j].eqn);
0ACB 8D82      2212            mov     dpl,r5
0ACD 8E83      2213            mov     dph,r6
0ACF 8FF0      2214            mov     b,r7
0AD1 120100    2215            lcall   __gptrget
0AD4 FA        2216            mov     r2,a
0AD5 A3        2217            inc     dptr
0AD6 120100    2218            lcall   __gptrget
0AD9 FB        2219            mov     r3,a
0ADA A3        2220            inc     dptr
0ADB 120100    2221            lcall   __gptrget
0ADE FC        2222            mov     r4,a
0ADF E500      2223            mov     a,_bp
0AE1 2403      2224            add     a,#0x03
0AE3 F8        2225            mov     r0,a
0AE4 E6        2226            mov     a,@r0
0AE5 2A        2227            add     a,r2
0AE6 FA        2228            mov     r2,a
0AE7 08        2229            inc     r0
0AE8 E6        2230            mov     a,@r0
0AE9 3B        2231            addc    a,r3
0AEA FB        2232            mov     r3,a
0AEB 740F      2233            mov     a,#0x0F
0AED 2A        2234            add     a,r2
0AEE FA        2235            mov     r2,a
0AEF E4        2236            clr     a
0AF0 3B        2237            addc    a,r3
0AF1 FB        2238            mov     r3,a
0AF2 8A82      2239            mov     dpl,r2
0AF4 8B83      2240            mov     dph,r3
0AF6 8CF0      2241            mov     b,r4
0AF8 120100    2242            lcall   __gptrget
0AFB FA        2243            mov     r2,a
0AFC A3        2244            inc     dptr
0AFD 120100    2245            lcall   __gptrget
0B00 FB        2246            mov     r3,a
0B01 A3        2247            inc     dptr
0B02 120100    2248            lcall   __gptrget
0B05 FC        2249            mov     r4,a
0B06 8A82      2250            mov     dpl,r2
0B08 8B83      2251            mov     dph,r3
0B0A 8CF0      2252            mov     b,r4
0B0C C002      2253            push    ar2
0B0E C003      2254            push    ar3
0B10 C004      2255            push    ar4
0B12 C005      2256            push    ar5
0B14 C006      2257            push    ar6
0B16 C007      2258            push    ar7
0B18 120100    2259            lcall   _free
0B1B D007      2260            pop     ar7
0B1D D006      2261            pop     ar6
0B1F D005      2262            pop     ar5
0B21 D004      2263            pop     ar4
0B23 D003      2264            pop     ar3
0B25 D002      2265            pop     ar2
0B27           2266   ;        C:\Source\call51\Examples\c\gs.c:157: for(j=0; j<syseq->order; j++)
0B27 E500      2267            mov     a,_bp
0B29 2403      2268            add     a,#0x03
0B2B F8        2269            mov     r0,a
0B2C 7414      2270            mov     a,#0x14
0B2E 26        2271            add     a,@r0
0B2F F6        2272            mov     @r0,a
0B30 E4        2273            clr     a
0B31 08        2274            inc     r0
0B32 36        2275            addc    a,@r0
0B33 F6        2276            mov     @r0,a
0B34 A800      2277            mov     r0,_bp
0B36 08        2278            inc     r0
0B37 06        2279            inc     @r0
0B38 B60000    2280            cjne    @r0,#0x00,L009011?
0B3B 08        2281            inc     r0
0B3C 06        2282            inc     @r0
0B3D           2283   L009011?:
0B3D D004      2284            pop     ar4
0B3F D003      2285            pop     ar3
0B41 D002      2286            pop     ar2
0B43 020100    2287            ljmp    L009001?
0B46           2288   L009005?:
0B46 850081    2289            mov     sp,_bp
0B49 D000      2290            pop     _bp
0B4B 22        2291            ret
0B4C           2292   ;------------------------------------------------------------
0B4C           2293   ;Allocation info for local variables in function 'eval_syseq'
0B4C           2294   ;------------------------------------------------------------
0B4C           2295   ;syseq                     Allocated to stack - offset 1
0B4C           2296   ;i                         Allocated to stack - offset 4
0B4C           2297   ;j                         Allocated to stack - offset 6
0B4C           2298   ;intol                     Allocated to stack - offset 8
0B4C           2299   ;x                         Allocated to stack - offset 10
0B4C           2300   ;sloc0                     Allocated to stack - offset 14
0B4C           2301   ;sloc1                     Allocated to stack - offset 17
0B4C           2302   ;sloc2                     Allocated to stack - offset 20
0B4C           2303   ;sloc3                     Allocated to stack - offset 22
0B4C           2304   ;sloc4                     Allocated to stack - offset 24
0B4C           2305   ;sloc5                     Allocated to stack - offset 27
0B4C           2306   ;sloc6                     Allocated to stack - offset 30
0B4C           2307   ;sloc7                     Allocated to stack - offset 30
0B4C           2308   ;sloc8                     Allocated to stack - offset 33
0B4C           2309   ;sloc9                     Allocated to stack - offset 37
0B4C           2310   ;------------------------------------------------------------
0B4C           2311   ;        C:\Source\call51\Examples\c\gs.c:166: int eval_syseq(_syseq * syseq) reentrant
0B4C           2312   ;        -----------------------------------------
0B4C           2313   ;         function eval_syseq
0B4C           2314   ;        -----------------------------------------
0B4C           2315   _eval_syseq:
0B4C C000      2316            push    _bp
0B4E 858100    2317            mov     _bp,sp
0B51 C082      2318            push    dpl
0B53 C083      2319            push    dph
0B55 C0F0      2320            push    b
0B57 E581      2321            mov     a,sp
0B59 2428      2322            add     a,#0x28
0B5B F581      2323            mov     sp,a
0B5D           2324   ;        C:\Source\call51\Examples\c\gs.c:168: int i, j, intol=1;
0B5D E500      2325            mov     a,_bp
0B5F 2408      2326            add     a,#0x08
0B61 F8        2327            mov     r0,a
0B62 7601      2328            mov     @r0,#0x01
0B64 E4        2329            clr     a
0B65 08        2330            inc     r0
0B66 F6        2331            mov     @r0,a
0B67           2332   ;        C:\Source\call51\Examples\c\gs.c:171: for(j=0; j<syseq->order; j++)
0B67 A800      2333            mov     r0,_bp
0B69 08        2334            inc     r0
0B6A E500      2335            mov     a,_bp
0B6C 2418      2336            add     a,#0x18
0B6E F9        2337            mov     r1,a
0B6F 7410      2338            mov     a,#0x10
0B71 26        2339            add     a,@r0
0B72 F7        2340            mov     @r1,a
0B73 E4        2341            clr     a
0B74 08        2342            inc     r0
0B75 36        2343            addc    a,@r0
0B76 09        2344            inc     r1
0B77 F7        2345            mov     @r1,a
0B78 08        2346            inc     r0
0B79 09        2347            inc     r1
0B7A E6        2348            mov     a,@r0
0B7B F7        2349            mov     @r1,a
0B7C A800      2350            mov     r0,_bp
0B7E 08        2351            inc     r0
0B7F E500      2352            mov     a,_bp
0B81 240E      2353            add     a,#0x0e
0B83 F9        2354            mov     r1,a
0B84 740A      2355            mov     a,#0x0A
0B86 26        2356            add     a,@r0
0B87 F7        2357            mov     @r1,a
0B88 E4        2358            clr     a
0B89 08        2359            inc     r0
0B8A 36        2360            addc    a,@r0
0B8B 09        2361            inc     r1
0B8C F7        2362            mov     @r1,a
0B8D 08        2363            inc     r0
0B8E 09        2364            inc     r1
0B8F E6        2365            mov     a,@r0
0B90 F7        2366            mov     @r1,a
0B91 A800      2367            mov     r0,_bp
0B93 08        2368            inc     r0
0B94 E500      2369            mov     a,_bp
0B96 2411      2370            add     a,#0x11
0B98 F9        2371            mov     r1,a
0B99 7406      2372            mov     a,#0x06
0B9B 26        2373            add     a,@r0
0B9C F7        2374            mov     @r1,a
0B9D E4        2375            clr     a
0B9E 08        2376            inc     r0
0B9F 36        2377            addc    a,@r0
0BA0 09        2378            inc     r1
0BA1 F7        2379            mov     @r1,a
0BA2 08        2380            inc     r0
0BA3 09        2381            inc     r1
0BA4 E6        2382            mov     a,@r0
0BA5 F7        2383            mov     @r1,a
0BA6 E500      2384            mov     a,_bp
0BA8 2406      2385            add     a,#0x06
0BAA F8        2386            mov     r0,a
0BAB E4        2387            clr     a
0BAC F6        2388            mov     @r0,a
0BAD 08        2389            inc     r0
0BAE F6        2390            mov     @r0,a
0BAF E500      2391            mov     a,_bp
0BB1 2414      2392            add     a,#0x14
0BB3 F8        2393            mov     r0,a
0BB4 E4        2394            clr     a
0BB5 F6        2395            mov     @r0,a
0BB6 08        2396            inc     r0
0BB7 F6        2397            mov     @r0,a
0BB8 E500      2398            mov     a,_bp
0BBA 2416      2399            add     a,#0x16
0BBC F8        2400            mov     r0,a
0BBD E4        2401            clr     a
0BBE F6        2402            mov     @r0,a
0BBF 08        2403            inc     r0
0BC0 F6        2404            mov     @r0,a
0BC1           2405   L010007?:
0BC1 A800      2406            mov     r0,_bp
0BC3 08        2407            inc     r0
0BC4 8682      2408            mov     dpl,@r0
0BC6 08        2409            inc     r0
0BC7 8683      2410            mov     dph,@r0
0BC9 08        2411            inc     r0
0BCA 86F0      2412            mov     b,@r0
0BCC 120100    2413            lcall   __gptrget
0BCF FC        2414            mov     r4,a
0BD0 A3        2415            inc     dptr
0BD1 120100    2416            lcall   __gptrget
0BD4 FD        2417            mov     r5,a
0BD5 E500      2418            mov     a,_bp
0BD7 2406      2419            add     a,#0x06
0BD9 F8        2420            mov     r0,a
0BDA C3        2421            clr     c
0BDB E6        2422            mov     a,@r0
0BDC 9C        2423            subb    a,r4
0BDD 08        2424            inc     r0
0BDE E6        2425            mov     a,@r0
0BDF 6480      2426            xrl     a,#0x80
0BE1 8DF0      2427            mov     b,r5
0BE3 63F080    2428            xrl     b,#0x80
0BE6 95F0      2429            subb    a,b
0BE8 4001      2430            jc      L010020?
0BEA 020100    2431            ljmp    L010010?
0BED           2432   L010020?:
0BED           2433   ;        C:\Source\call51\Examples\c\gs.c:173: x=0.0;
0BED E500      2434            mov     a,_bp
0BEF 240A      2435            add     a,#0x0a
0BF1 F8        2436            mov     r0,a
0BF2 7600      2437            mov     @r0,#0x00
0BF4 08        2438            inc     r0
0BF5 7600      2439            mov     @r0,#0x00
0BF7 08        2440            inc     r0
0BF8 7600      2441            mov     @r0,#0x00
0BFA 08        2442            inc     r0
0BFB 7600      2443            mov     @r0,#0x00
0BFD           2444   ;        C:\Source\call51\Examples\c\gs.c:174: for(i=0; i<syseq->eq[j].n; i++)
0BFD E500      2445            mov     a,_bp
0BFF 2404      2446            add     a,#0x04
0C01 F8        2447            mov     r0,a
0C02 E4        2448            clr     a
0C03 F6        2449            mov     @r0,a
0C04 08        2450            inc     r0
0C05 F6        2451            mov     @r0,a
0C06           2452   L010003?:
0C06 E500      2453            mov     a,_bp
0C08 2418      2454            add     a,#0x18
0C0A F8        2455            mov     r0,a
0C0B 8682      2456            mov     dpl,@r0
0C0D 08        2457            inc     r0
0C0E 8683      2458            mov     dph,@r0
0C10 08        2459            inc     r0
0C11 86F0      2460            mov     b,@r0
0C13 E500      2461            mov     a,_bp
0C15 241B      2462            add     a,#0x1b
0C17 F9        2463            mov     r1,a
0C18 120100    2464            lcall   __gptrget
0C1B F7        2465            mov     @r1,a
0C1C A3        2466            inc     dptr
0C1D 120100    2467            lcall   __gptrget
0C20 09        2468            inc     r1
0C21 F7        2469            mov     @r1,a
0C22 A3        2470            inc     dptr
0C23 120100    2471            lcall   __gptrget
0C26 09        2472            inc     r1
0C27 F7        2473            mov     @r1,a
0C28 E500      2474            mov     a,_bp
0C2A 241B      2475            add     a,#0x1b
0C2C F8        2476            mov     r0,a
0C2D E500      2477            mov     a,_bp
0C2F 2414      2478            add     a,#0x14
0C31 F9        2479            mov     r1,a
0C32 E7        2480            mov     a,@r1
0C33 26        2481            add     a,@r0
0C34 C0E0      2482            push    acc
0C36 09        2483            inc     r1
0C37 E7        2484            mov     a,@r1
0C38 08        2485            inc     r0
0C39 36        2486            addc    a,@r0
0C3A C0E0      2487            push    acc
0C3C 08        2488            inc     r0
0C3D E6        2489            mov     a,@r0
0C3E C0E0      2490            push    acc
0C40 E500      2491            mov     a,_bp
0C42 2420      2492            add     a,#0x20
0C44 F8        2493            mov     r0,a
0C45 D0E0      2494            pop     acc
0C47 F6        2495            mov     @r0,a
0C48 18        2496            dec     r0
0C49 D0E0      2497            pop     acc
0C4B F6        2498            mov     @r0,a
0C4C 18        2499            dec     r0
0C4D D0E0      2500            pop     acc
0C4F F6        2501            mov     @r0,a
0C50 E500      2502            mov     a,_bp
0C52 241E      2503            add     a,#0x1e
0C54 F8        2504            mov     r0,a
0C55 7412      2505            mov     a,#0x12
0C57 26        2506            add     a,@r0
0C58 FA        2507            mov     r2,a
0C59 E4        2508            clr     a
0C5A 08        2509            inc     r0
0C5B 36        2510            addc    a,@r0
0C5C FE        2511            mov     r6,a
0C5D 08        2512            inc     r0
0C5E 8607      2513            mov     ar7,@r0
0C60 8A82      2514            mov     dpl,r2
0C62 8E83      2515            mov     dph,r6
0C64 8FF0      2516            mov     b,r7
0C66 120100    2517            lcall   __gptrget
0C69 FA        2518            mov     r2,a
0C6A A3        2519            inc     dptr
0C6B 120100    2520            lcall   __gptrget
0C6E FE        2521            mov     r6,a
0C6F E500      2522            mov     a,_bp
0C71 2404      2523            add     a,#0x04
0C73 F8        2524            mov     r0,a
0C74 C3        2525            clr     c
0C75 E6        2526            mov     a,@r0
0C76 9A        2527            subb    a,r2
0C77 08        2528            inc     r0
0C78 E6        2529            mov     a,@r0
0C79 6480      2530            xrl     a,#0x80
0C7B 8EF0      2531            mov     b,r6
0C7D 63F080    2532            xrl     b,#0x80
0C80 95F0      2533            subb    a,b
0C82 4001      2534            jc      L010021?
0C84 020100    2535            ljmp    L010006?
0C87           2536   L010021?:
0C87           2537   ;        C:\Source\call51\Examples\c\gs.c:176: x-=syseq->eq[j].gij[i]*syseq->eq[syseq->eq[j].eqn[i]].x;
0C87 E500      2538            mov     a,_bp
0C89 241E      2539            add     a,#0x1e
0C8B F8        2540            mov     r0,a
0C8C 740C      2541            mov     a,#0x0C
0C8E 26        2542            add     a,@r0
0C8F FA        2543            mov     r2,a
0C90 E4        2544            clr     a
0C91 08        2545            inc     r0
0C92 36        2546            addc    a,@r0
0C93 FE        2547            mov     r6,a
0C94 08        2548            inc     r0
0C95 8607      2549            mov     ar7,@r0
0C97 8A82      2550            mov     dpl,r2
0C99 8E83      2551            mov     dph,r6
0C9B 8FF0      2552            mov     b,r7
0C9D 120100    2553            lcall   __gptrget
0CA0 FB        2554            mov     r3,a
0CA1 A3        2555            inc     dptr
0CA2 120100    2556            lcall   __gptrget
0CA5 FC        2557            mov     r4,a
0CA6 A3        2558            inc     dptr
0CA7 120100    2559            lcall   __gptrget
0CAA FD        2560            mov     r5,a
0CAB E500      2561            mov     a,_bp
0CAD 2404      2562            add     a,#0x04
0CAF F8        2563            mov     r0,a
0CB0 8602      2564            mov     ar2,@r0
0CB2 08        2565            inc     r0
0CB3 E6        2566            mov     a,@r0
0CB4 CA        2567            xch     a,r2
0CB5 25E0      2568            add     a,acc
0CB7 CA        2569            xch     a,r2
0CB8 33        2570            rlc     a
0CB9 CA        2571            xch     a,r2
0CBA 25E0      2572            add     a,acc
0CBC CA        2573            xch     a,r2
0CBD 33        2574            rlc     a
0CBE FE        2575            mov     r6,a
0CBF EA        2576            mov     a,r2
0CC0 2B        2577            add     a,r3
0CC1 FA        2578            mov     r2,a
0CC2 EE        2579            mov     a,r6
0CC3 3C        2580            addc    a,r4
0CC4 FE        2581            mov     r6,a
0CC5 8D07      2582            mov     ar7,r5
0CC7 8A82      2583            mov     dpl,r2
0CC9 8E83      2584            mov     dph,r6
0CCB 8FF0      2585            mov     b,r7
0CCD E500      2586            mov     a,_bp
0CCF 2421      2587            add     a,#0x21
0CD1 F8        2588            mov     r0,a
0CD2 120100    2589            lcall   __gptrget
0CD5 F6        2590            mov     @r0,a
0CD6 A3        2591            inc     dptr
0CD7 120100    2592            lcall   __gptrget
0CDA 08        2593            inc     r0
0CDB F6        2594            mov     @r0,a
0CDC A3        2595            inc     dptr
0CDD 120100    2596            lcall   __gptrget
0CE0 08        2597            inc     r0
0CE1 F6        2598            mov     @r0,a
0CE2 A3        2599            inc     dptr
0CE3 120100    2600            lcall   __gptrget
0CE6 08        2601            inc     r0
0CE7 F6        2602            mov     @r0,a
0CE8 E500      2603            mov     a,_bp
0CEA 241E      2604            add     a,#0x1e
0CEC F8        2605            mov     r0,a
0CED 740F      2606            mov     a,#0x0F
0CEF 26        2607            add     a,@r0
0CF0 FC        2608            mov     r4,a
0CF1 E4        2609            clr     a
0CF2 08        2610            inc     r0
0CF3 36        2611            addc    a,@r0
0CF4 FD        2612            mov     r5,a
0CF5 08        2613            inc     r0
0CF6 8602      2614            mov     ar2,@r0
0CF8 8C82      2615            mov     dpl,r4
0CFA 8D83      2616            mov     dph,r5
0CFC 8AF0      2617            mov     b,r2
0CFE 120100    2618            lcall   __gptrget
0D01 FC        2619            mov     r4,a
0D02 A3        2620            inc     dptr
0D03 120100    2621            lcall   __gptrget
0D06 FD        2622            mov     r5,a
0D07 A3        2623            inc     dptr
0D08 120100    2624            lcall   __gptrget
0D0B FA        2625            mov     r2,a
0D0C E500      2626            mov     a,_bp
0D0E 2404      2627            add     a,#0x04
0D10 F8        2628            mov     r0,a
0D11 8603      2629            mov     ar3,@r0
0D13 08        2630            inc     r0
0D14 E6        2631            mov     a,@r0
0D15 CB        2632            xch     a,r3
0D16 25E0      2633            add     a,acc
0D18 CB        2634            xch     a,r3
0D19 33        2635            rlc     a
0D1A FE        2636            mov     r6,a
0D1B EB        2637            mov     a,r3
0D1C 2C        2638            add     a,r4
0D1D FC        2639            mov     r4,a
0D1E EE        2640            mov     a,r6
0D1F 3D        2641            addc    a,r5
0D20 FD        2642            mov     r5,a
0D21 8C82      2643            mov     dpl,r4
0D23 8D83      2644            mov     dph,r5
0D25 8AF0      2645            mov     b,r2
0D27 120100    2646            lcall   __gptrget
0D2A F500      2647            mov     __mulint_PARM_2,a
0D2C A3        2648            inc     dptr
0D2D 120100    2649            lcall   __gptrget
0D30 F501      2650            mov     (__mulint_PARM_2 + 1),a
0D32 900014    2651            mov     dptr,#0x0014
0D35 120100    2652            lcall   __mulint
0D38 AA82      2653            mov     r2,dpl
0D3A AB83      2654            mov     r3,dph
0D3C E500      2655            mov     a,_bp
0D3E 241B      2656            add     a,#0x1b
0D40 F8        2657            mov     r0,a
0D41 EA        2658            mov     a,r2
0D42 26        2659            add     a,@r0
0D43 FA        2660            mov     r2,a
0D44 EB        2661            mov     a,r3
0D45 08        2662            inc     r0
0D46 36        2663            addc    a,@r0
0D47 FB        2664            mov     r3,a
0D48 08        2665            inc     r0
0D49 8604      2666            mov     ar4,@r0
0D4B 7408      2667            mov     a,#0x08
0D4D 2A        2668            add     a,r2
0D4E FA        2669            mov     r2,a
0D4F E4        2670            clr     a
0D50 3B        2671            addc    a,r3
0D51 FB        2672            mov     r3,a
0D52 8A82      2673            mov     dpl,r2
0D54 8B83      2674            mov     dph,r3
0D56 8CF0      2675            mov     b,r4
0D58 120100    2676            lcall   __gptrget
0D5B FA        2677            mov     r2,a
0D5C A3        2678            inc     dptr
0D5D 120100    2679            lcall   __gptrget
0D60 FB        2680            mov     r3,a
0D61 A3        2681            inc     dptr
0D62 120100    2682            lcall   __gptrget
0D65 FC        2683            mov     r4,a
0D66 A3        2684            inc     dptr
0D67 120100    2685            lcall   __gptrget
0D6A FD        2686            mov     r5,a
0D6B C002      2687            push    ar2
0D6D C003      2688            push    ar3
0D6F C004      2689            push    ar4
0D71 C005      2690            push    ar5
0D73 E500      2691            mov     a,_bp
0D75 2421      2692            add     a,#0x21
0D77 F8        2693            mov     r0,a
0D78 8682      2694            mov     dpl,@r0
0D7A 08        2695            inc     r0
0D7B 8683      2696            mov     dph,@r0
0D7D 08        2697            inc     r0
0D7E 86F0      2698            mov     b,@r0
0D80 08        2699            inc     r0
0D81 E6        2700            mov     a,@r0
0D82 120100    2701            lcall   ___fsmul
0D85 AA82      2702            mov     r2,dpl
0D87 AB83      2703            mov     r3,dph
0D89 ACF0      2704            mov     r4,b
0D8B FD        2705            mov     r5,a
0D8C E581      2706            mov     a,sp
0D8E 24FC      2707            add     a,#0xfc
0D90 F581      2708            mov     sp,a
0D92 C002      2709            push    ar2
0D94 C003      2710            push    ar3
0D96 C004      2711            push    ar4
0D98 C005      2712            push    ar5
0D9A E500      2713            mov     a,_bp
0D9C 240A      2714            add     a,#0x0a
0D9E F8        2715            mov     r0,a
0D9F 8682      2716            mov     dpl,@r0
0DA1 08        2717            inc     r0
0DA2 8683      2718            mov     dph,@r0
0DA4 08        2719            inc     r0
0DA5 86F0      2720            mov     b,@r0
0DA7 08        2721            inc     r0
0DA8 E6        2722            mov     a,@r0
0DA9 120100    2723            lcall   ___fssub
0DAC AA82      2724            mov     r2,dpl
0DAE AB83      2725            mov     r3,dph
0DB0 ACF0      2726            mov     r4,b
0DB2 FD        2727            mov     r5,a
0DB3 E581      2728            mov     a,sp
0DB5 24FC      2729            add     a,#0xfc
0DB7 F581      2730            mov     sp,a
0DB9 E500      2731            mov     a,_bp
0DBB 240A      2732            add     a,#0x0a
0DBD F8        2733            mov     r0,a
0DBE A602      2734            mov     @r0,ar2
0DC0 08        2735            inc     r0
0DC1 A603      2736            mov     @r0,ar3
0DC3 08        2737            inc     r0
0DC4 A604      2738            mov     @r0,ar4
0DC6 08        2739            inc     r0
0DC7 A605      2740            mov     @r0,ar5
0DC9           2741   ;        C:\Source\call51\Examples\c\gs.c:174: for(i=0; i<syseq->eq[j].n; i++)
0DC9 E500      2742            mov     a,_bp
0DCB 2404      2743            add     a,#0x04
0DCD F8        2744            mov     r0,a
0DCE 06        2745            inc     @r0
0DCF B60040    2746            cjne    @r0,#0x00,L010022?
0DD2 08        2747            inc     r0
0DD3 06        2748            inc     @r0
0DD4           2749   L010022?:
0DD4 020100    2750            ljmp    L010003?
0DD7           2751   L010006?:
0DD7           2752   ;        C:\Source\call51\Examples\c\gs.c:178: x+=syseq->eq[j].b;
0DD7 E500      2753            mov     a,_bp
0DD9 241E      2754            add     a,#0x1e
0DDB F8        2755            mov     r0,a
0DDC 8682      2756            mov     dpl,@r0
0DDE 08        2757            inc     r0
0DDF 8683      2758            mov     dph,@r0
0DE1 08        2759            inc     r0
0DE2 86F0      2760            mov     b,@r0
0DE4 120100    2761            lcall   __gptrget
0DE7 FA        2762            mov     r2,a
0DE8 A3        2763            inc     dptr
0DE9 120100    2764            lcall   __gptrget
0DEC FB        2765            mov     r3,a
0DED A3        2766            inc     dptr
0DEE 120100    2767            lcall   __gptrget
0DF1 FC        2768            mov     r4,a
0DF2 A3        2769            inc     dptr
0DF3 120100    2770            lcall   __gptrget
0DF6 FD        2771            mov     r5,a
0DF7 C002      2772            push    ar2
0DF9 C003      2773            push    ar3
0DFB C004      2774            push    ar4
0DFD C005      2775            push    ar5
0DFF E500      2776            mov     a,_bp
0E01 240A      2777            add     a,#0x0a
0E03 F8        2778            mov     r0,a
0E04 8682      2779            mov     dpl,@r0
0E06 08        2780            inc     r0
0E07 8683      2781            mov     dph,@r0
0E09 08        2782            inc     r0
0E0A 86F0      2783            mov     b,@r0
0E0C 08        2784            inc     r0
0E0D E6        2785            mov     a,@r0
0E0E 120100    2786            lcall   ___fsadd
0E11 AA82      2787            mov     r2,dpl
0E13 AB83      2788            mov     r3,dph
0E15 ACF0      2789            mov     r4,b
0E17 FD        2790            mov     r5,a
0E18 E581      2791            mov     a,sp
0E1A 24FC      2792            add     a,#0xfc
0E1C F581      2793            mov     sp,a
0E1E E500      2794            mov     a,_bp
0E20 240A      2795            add     a,#0x0a
0E22 F8        2796            mov     r0,a
0E23 A602      2797            mov     @r0,ar2
0E25 08        2798            inc     r0
0E26 A603      2799            mov     @r0,ar3
0E28 08        2800            inc     r0
0E29 A604      2801            mov     @r0,ar4
0E2B 08        2802            inc     r0
0E2C A605      2803            mov     @r0,ar5
0E2E           2804   ;        C:\Source\call51\Examples\c\gs.c:179: x*=(syseq->alpha/syseq->eq[j].g);
0E2E E500      2805            mov     a,_bp
0E30 240E      2806            add     a,#0x0e
0E32 F8        2807            mov     r0,a
0E33 8682      2808            mov     dpl,@r0
0E35 08        2809            inc     r0
0E36 8683      2810            mov     dph,@r0
0E38 08        2811            inc     r0
0E39 86F0      2812            mov     b,@r0
0E3B E500      2813            mov     a,_bp
0E3D 2421      2814            add     a,#0x21
0E3F F9        2815            mov     r1,a
0E40 120100    2816            lcall   __gptrget
0E43 F7        2817            mov     @r1,a
0E44 A3        2818            inc     dptr
0E45 120100    2819            lcall   __gptrget
0E48 09        2820            inc     r1
0E49 F7        2821            mov     @r1,a
0E4A A3        2822            inc     dptr
0E4B 120100    2823            lcall   __gptrget
0E4E 09        2824            inc     r1
0E4F F7        2825            mov     @r1,a
0E50 A3        2826            inc     dptr
0E51 120100    2827            lcall   __gptrget
0E54 09        2828            inc     r1
0E55 F7        2829            mov     @r1,a
0E56 E500      2830            mov     a,_bp
0E58 241E      2831            add     a,#0x1e
0E5A F8        2832            mov     r0,a
0E5B 7404      2833            mov     a,#0x04
0E5D 26        2834            add     a,@r0
0E5E FE        2835            mov     r6,a
0E5F E4        2836            clr     a
0E60 08        2837            inc     r0
0E61 36        2838            addc    a,@r0
0E62 FF        2839            mov     r7,a
0E63 08        2840            inc     r0
0E64 8602      2841            mov     ar2,@r0
0E66 8E82      2842            mov     dpl,r6
0E68 8F83      2843            mov     dph,r7
0E6A 8AF0      2844            mov     b,r2
0E6C 120100    2845            lcall   __gptrget
0E6F FE        2846            mov     r6,a
0E70 A3        2847            inc     dptr
0E71 120100    2848            lcall   __gptrget
0E74 FF        2849            mov     r7,a
0E75 A3        2850            inc     dptr
0E76 120100    2851            lcall   __gptrget
0E79 FA        2852            mov     r2,a
0E7A A3        2853            inc     dptr
0E7B 120100    2854            lcall   __gptrget
0E7E FB        2855            mov     r3,a
0E7F C006      2856            push    ar6
0E81 C007      2857            push    ar7
0E83 C002      2858            push    ar2
0E85 C003      2859            push    ar3
0E87 E500      2860            mov     a,_bp
0E89 2421      2861            add     a,#0x21
0E8B F8        2862            mov     r0,a
0E8C 8682      2863            mov     dpl,@r0
0E8E 08        2864            inc     r0
0E8F 8683      2865            mov     dph,@r0
0E91 08        2866            inc     r0
0E92 86F0      2867            mov     b,@r0
0E94 08        2868            inc     r0
0E95 E6        2869            mov     a,@r0
0E96 120100    2870            lcall   ___fsdiv
0E99 AA82      2871            mov     r2,dpl
0E9B AB83      2872            mov     r3,dph
0E9D ACF0      2873            mov     r4,b
0E9F FD        2874            mov     r5,a
0EA0 E581      2875            mov     a,sp
0EA2 24FC      2876            add     a,#0xfc
0EA4 F581      2877            mov     sp,a
0EA6 C002      2878            push    ar2
0EA8 C003      2879            push    ar3
0EAA C004      2880            push    ar4
0EAC C005      2881            push    ar5
0EAE E500      2882            mov     a,_bp
0EB0 240A      2883            add     a,#0x0a
0EB2 F8        2884            mov     r0,a
0EB3 8682      2885            mov     dpl,@r0
0EB5 08        2886            inc     r0
0EB6 8683      2887            mov     dph,@r0
0EB8 08        2888            inc     r0
0EB9 86F0      2889            mov     b,@r0
0EBB 08        2890            inc     r0
0EBC E6        2891            mov     a,@r0
0EBD 120100    2892            lcall   ___fsmul
0EC0 AA82      2893            mov     r2,dpl
0EC2 AB83      2894            mov     r3,dph
0EC4 ACF0      2895            mov     r4,b
0EC6 FD        2896            mov     r5,a
0EC7 E581      2897            mov     a,sp
0EC9 24FC      2898            add     a,#0xfc
0ECB F581      2899            mov     sp,a
0ECD E500      2900            mov     a,_bp
0ECF 240A      2901            add     a,#0x0a
0ED1 F8        2902            mov     r0,a
0ED2 A602      2903            mov     @r0,ar2
0ED4 08        2904            inc     r0
0ED5 A603      2905            mov     @r0,ar3
0ED7 08        2906            inc     r0
0ED8 A604      2907            mov     @r0,ar4
0EDA 08        2908            inc     r0
0EDB A605      2909            mov     @r0,ar5
0EDD           2910   ;        C:\Source\call51\Examples\c\gs.c:180: x+=((1.0-syseq->alpha)*syseq->eq[j].x);
0EDD E500      2911            mov     a,_bp
0EDF 2421      2912            add     a,#0x21
0EE1 F8        2913            mov     r0,a
0EE2 E6        2914            mov     a,@r0
0EE3 C0E0      2915            push    acc
0EE5 08        2916            inc     r0
0EE6 E6        2917            mov     a,@r0
0EE7 C0E0      2918            push    acc
0EE9 08        2919            inc     r0
0EEA E6        2920            mov     a,@r0
0EEB C0E0      2921            push    acc
0EED 08        2922            inc     r0
0EEE E6        2923            mov     a,@r0
0EEF C0E0      2924            push    acc
0EF1 900000    2925            mov     dptr,#0x0000
0EF4 75F080    2926            mov     b,#0x80
0EF7 743F      2927            mov     a,#0x3F
0EF9 120100    2928            lcall   ___fssub
0EFC C8        2929            xch     a,r0
0EFD E500      2930            mov     a,_bp
0EFF 2421      2931            add     a,#0x21
0F01 C8        2932            xch     a,r0
0F02 A682      2933            mov     @r0,dpl
0F04 08        2934            inc     r0
0F05 A683      2935            mov     @r0,dph
0F07 08        2936            inc     r0
0F08 A6F0      2937            mov     @r0,b
0F0A 08        2938            inc     r0
0F0B F6        2939            mov     @r0,a
0F0C E581      2940            mov     a,sp
0F0E 24FC      2941            add     a,#0xfc
0F10 F581      2942            mov     sp,a
0F12 E500      2943            mov     a,_bp
0F14 241E      2944            add     a,#0x1e
0F16 F8        2945            mov     r0,a
0F17 7408      2946            mov     a,#0x08
0F19 26        2947            add     a,@r0
0F1A FE        2948            mov     r6,a
0F1B E4        2949            clr     a
0F1C 08        2950            inc     r0
0F1D 36        2951            addc    a,@r0
0F1E FF        2952            mov     r7,a
0F1F 08        2953            inc     r0
0F20 8602      2954            mov     ar2,@r0
0F22 8E82      2955            mov     dpl,r6
0F24 8F83      2956            mov     dph,r7
0F26 8AF0      2957            mov     b,r2
0F28 E500      2958            mov     a,_bp
0F2A 2425      2959            add     a,#0x25
0F2C F8        2960            mov     r0,a
0F2D 120100    2961            lcall   __gptrget
0F30 F6        2962            mov     @r0,a
0F31 A3        2963            inc     dptr
0F32 120100    2964            lcall   __gptrget
0F35 08        2965            inc     r0
0F36 F6        2966            mov     @r0,a
0F37 A3        2967            inc     dptr
0F38 120100    2968            lcall   __gptrget
0F3B 08        2969            inc     r0
0F3C F6        2970            mov     @r0,a
0F3D A3        2971            inc     dptr
0F3E 120100    2972            lcall   __gptrget
0F41 08        2973            inc     r0
0F42 F6        2974            mov     @r0,a
0F43 E500      2975            mov     a,_bp
0F45 2425      2976            add     a,#0x25
0F47 F8        2977            mov     r0,a
0F48 E6        2978            mov     a,@r0
0F49 C0E0      2979            push    acc
0F4B 08        2980            inc     r0
0F4C E6        2981            mov     a,@r0
0F4D C0E0      2982            push    acc
0F4F 08        2983            inc     r0
0F50 E6        2984            mov     a,@r0
0F51 C0E0      2985            push    acc
0F53 08        2986            inc     r0
0F54 E6        2987            mov     a,@r0
0F55 C0E0      2988            push    acc
0F57 E500      2989            mov     a,_bp
0F59 2421      2990            add     a,#0x21
0F5B F8        2991            mov     r0,a
0F5C 8682      2992            mov     dpl,@r0
0F5E 08        2993            inc     r0
0F5F 8683      2994            mov     dph,@r0
0F61 08        2995            inc     r0
0F62 86F0      2996            mov     b,@r0
0F64 08        2997            inc     r0
0F65 E6        2998            mov     a,@r0
0F66 120100    2999            lcall   ___fsmul
0F69 AC82      3000            mov     r4,dpl
0F6B AD83      3001            mov     r5,dph
0F6D AAF0      3002            mov     r2,b
0F6F FB        3003            mov     r3,a
0F70 E581      3004            mov     a,sp
0F72 24FC      3005            add     a,#0xfc
0F74 F581      3006            mov     sp,a
0F76 C004      3007            push    ar4
0F78 C005      3008            push    ar5
0F7A C002      3009            push    ar2
0F7C C003      3010            push    ar3
0F7E E500      3011            mov     a,_bp
0F80 240A      3012            add     a,#0x0a
0F82 F8        3013            mov     r0,a
0F83 8682      3014            mov     dpl,@r0
0F85 08        3015            inc     r0
0F86 8683      3016            mov     dph,@r0
0F88 08        3017            inc     r0
0F89 86F0      3018            mov     b,@r0
0F8B 08        3019            inc     r0
0F8C E6        3020            mov     a,@r0
0F8D 120100    3021            lcall   ___fsadd
0F90 AA82      3022            mov     r2,dpl
0F92 AB83      3023            mov     r3,dph
0F94 ACF0      3024            mov     r4,b
0F96 FD        3025            mov     r5,a
0F97 E581      3026            mov     a,sp
0F99 24FC      3027            add     a,#0xfc
0F9B F581      3028            mov     sp,a
0F9D E500      3029            mov     a,_bp
0F9F 240A      3030            add     a,#0x0a
0FA1 F8        3031            mov     r0,a
0FA2 A602      3032            mov     @r0,ar2
0FA4 08        3033            inc     r0
0FA5 A603      3034            mov     @r0,ar3
0FA7 08        3035            inc     r0
0FA8 A604      3036            mov     @r0,ar4
0FAA 08        3037            inc     r0
0FAB A605      3038            mov     @r0,ar5
0FAD           3039   ;        C:\Source\call51\Examples\c\gs.c:183: if((fabs(x-syseq->eq[j].x)/fabs(x))>syseq->tol) intol=0;
0FAD E500      3040            mov     a,_bp
0FAF 2425      3041            add     a,#0x25
0FB1 F8        3042            mov     r0,a
0FB2 E6        3043            mov     a,@r0
0FB3 C0E0      3044            push    acc
0FB5 08        3045            inc     r0
0FB6 E6        3046            mov     a,@r0
0FB7 C0E0      3047            push    acc
0FB9 08        3048            inc     r0
0FBA E6        3049            mov     a,@r0
0FBB C0E0      3050            push    acc
0FBD 08        3051            inc     r0
0FBE E6        3052            mov     a,@r0
0FBF C0E0      3053            push    acc
0FC1 E500      3054            mov     a,_bp
0FC3 240A      3055            add     a,#0x0a
0FC5 F8        3056            mov     r0,a
0FC6 8682      3057            mov     dpl,@r0
0FC8 08        3058            inc     r0
0FC9 8683      3059            mov     dph,@r0
0FCB 08        3060            inc     r0
0FCC 86F0      3061            mov     b,@r0
0FCE 08        3062            inc     r0
0FCF E6        3063            mov     a,@r0
0FD0 120100    3064            lcall   ___fssub
0FD3 AA82      3065            mov     r2,dpl
0FD5 AB83      3066            mov     r3,dph
0FD7 ACF0      3067            mov     r4,b
0FD9 FD        3068            mov     r5,a
0FDA E581      3069            mov     a,sp
0FDC 24FC      3070            add     a,#0xfc
0FDE F581      3071            mov     sp,a
0FE0 8A82      3072            mov     dpl,r2
0FE2 8B83      3073            mov     dph,r3
0FE4 8CF0      3074            mov     b,r4
0FE6 ED        3075            mov     a,r5
0FE7 120100    3076            lcall   _fabsf
0FEA C8        3077            xch     a,r0
0FEB E500      3078            mov     a,_bp
0FED 2425      3079            add     a,#0x25
0FEF C8        3080            xch     a,r0
0FF0 A682      3081            mov     @r0,dpl
0FF2 08        3082            inc     r0
0FF3 A683      3083            mov     @r0,dph
0FF5 08        3084            inc     r0
0FF6 A6F0      3085            mov     @r0,b
0FF8 08        3086            inc     r0
0FF9 F6        3087            mov     @r0,a
0FFA E500      3088            mov     a,_bp
0FFC 240A      3089            add     a,#0x0a
0FFE F8        3090            mov     r0,a
0FFF 8682      3091            mov     dpl,@r0
1001 08        3092            inc     r0
1002 8683      3093            mov     dph,@r0
1004 08        3094            inc     r0
1005 86F0      3095            mov     b,@r0
1007 08        3096            inc     r0
1008 E6        3097            mov     a,@r0
1009 120100    3098            lcall   _fabsf
100C AE82      3099            mov     r6,dpl
100E AF83      3100            mov     r7,dph
1010 AAF0      3101            mov     r2,b
1012 FB        3102            mov     r3,a
1013 C006      3103            push    ar6
1015 C007      3104            push    ar7
1017 C002      3105            push    ar2
1019 C003      3106            push    ar3
101B E500      3107            mov     a,_bp
101D 2425      3108            add     a,#0x25
101F F8        3109            mov     r0,a
1020 8682      3110            mov     dpl,@r0
1022 08        3111            inc     r0
1023 8683      3112            mov     dph,@r0
1025 08        3113            inc     r0
1026 86F0      3114            mov     b,@r0
1028 08        3115            inc     r0
1029 E6        3116            mov     a,@r0
102A 120100    3117            lcall   ___fsdiv
102D C8        3118            xch     a,r0
102E E500      3119            mov     a,_bp
1030 2425      3120            add     a,#0x25
1032 C8        3121            xch     a,r0
1033 A682      3122            mov     @r0,dpl
1035 08        3123            inc     r0
1036 A683      3124            mov     @r0,dph
1038 08        3125            inc     r0
1039 A6F0      3126            mov     @r0,b
103B 08        3127            inc     r0
103C F6        3128            mov     @r0,a
103D E581      3129            mov     a,sp
103F 24FC      3130            add     a,#0xfc
1041 F581      3131            mov     sp,a
1043 E500      3132            mov     a,_bp
1045 2411      3133            add     a,#0x11
1047 F8        3134            mov     r0,a
1048 8682      3135            mov     dpl,@r0
104A 08        3136            inc     r0
104B 8683      3137            mov     dph,@r0
104D 08        3138            inc     r0
104E 86F0      3139            mov     b,@r0
1050 120100    3140            lcall   __gptrget
1053 FE        3141            mov     r6,a
1054 A3        3142            inc     dptr
1055 120100    3143            lcall   __gptrget
1058 FF        3144            mov     r7,a
1059 A3        3145            inc     dptr
105A 120100    3146            lcall   __gptrget
105D FA        3147            mov     r2,a
105E A3        3148            inc     dptr
105F 120100    3149            lcall   __gptrget
1062 FB        3150            mov     r3,a
1063 C006      3151            push    ar6
1065 C007      3152            push    ar7
1067 C002      3153            push    ar2
1069 C003      3154            push    ar3
106B E500      3155            mov     a,_bp
106D 2425      3156            add     a,#0x25
106F F8        3157            mov     r0,a
1070 8682      3158            mov     dpl,@r0
1072 08        3159            inc     r0
1073 8683      3160            mov     dph,@r0
1075 08        3161            inc     r0
1076 86F0      3162            mov     b,@r0
1078 08        3163            inc     r0
1079 E6        3164            mov     a,@r0
107A 120100    3165            lcall   ___fsgt
107D AA82      3166            mov     r2,dpl
107F E581      3167            mov     a,sp
1081 24FC      3168            add     a,#0xfc
1083 F581      3169            mov     sp,a
1085 EA        3170            mov     a,r2
1086 6001      3171            jz      L010002?
1088 E500      3172            mov     a,_bp
108A 2408      3173            add     a,#0x08
108C F8        3174            mov     r0,a
108D E4        3175            clr     a
108E F6        3176            mov     @r0,a
108F 08        3177            inc     r0
1090 F6        3178            mov     @r0,a
1091           3179   L010002?:
1091           3180   ;        C:\Source\call51\Examples\c\gs.c:185: syseq->eq[j].x=x;
1091 E500      3181            mov     a,_bp
1093 2418      3182            add     a,#0x18
1095 F8        3183            mov     r0,a
1096 8682      3184            mov     dpl,@r0
1098 08        3185            inc     r0
1099 8683      3186            mov     dph,@r0
109B 08        3187            inc     r0
109C 86F0      3188            mov     b,@r0
109E 120100    3189            lcall   __gptrget
10A1 FA        3190            mov     r2,a
10A2 A3        3191            inc     dptr
10A3 120100    3192            lcall   __gptrget
10A6 FB        3193            mov     r3,a
10A7 A3        3194            inc     dptr
10A8 120100    3195            lcall   __gptrget
10AB FC        3196            mov     r4,a
10AC E500      3197            mov     a,_bp
10AE 2416      3198            add     a,#0x16
10B0 F8        3199            mov     r0,a
10B1 E6        3200            mov     a,@r0
10B2 2A        3201            add     a,r2
10B3 FA        3202            mov     r2,a
10B4 08        3203            inc     r0
10B5 E6        3204            mov     a,@r0
10B6 3B        3205            addc    a,r3
10B7 FB        3206            mov     r3,a
10B8 7408      3207            mov     a,#0x08
10BA 2A        3208            add     a,r2
10BB FA        3209            mov     r2,a
10BC E4        3210            clr     a
10BD 3B        3211            addc    a,r3
10BE FB        3212            mov     r3,a
10BF 8A82      3213            mov     dpl,r2
10C1 8B83      3214            mov     dph,r3
10C3 8CF0      3215            mov     b,r4
10C5 E500      3216            mov     a,_bp
10C7 240A      3217            add     a,#0x0a
10C9 F8        3218            mov     r0,a
10CA E6        3219            mov     a,@r0
10CB 120100    3220            lcall   __gptrput
10CE A3        3221            inc     dptr
10CF 08        3222            inc     r0
10D0 E6        3223            mov     a,@r0
10D1 120100    3224            lcall   __gptrput
10D4 A3        3225            inc     dptr
10D5 08        3226            inc     r0
10D6 E6        3227            mov     a,@r0
10D7 120100    3228            lcall   __gptrput
10DA A3        3229            inc     dptr
10DB 08        3230            inc     r0
10DC E6        3231            mov     a,@r0
10DD 120100    3232            lcall   __gptrput
10E0           3233   ;        C:\Source\call51\Examples\c\gs.c:171: for(j=0; j<syseq->order; j++)
10E0 E500      3234            mov     a,_bp
10E2 2414      3235            add     a,#0x14
10E4 F8        3236            mov     r0,a
10E5 7414      3237            mov     a,#0x14
10E7 26        3238            add     a,@r0
10E8 F6        3239            mov     @r0,a
10E9 E4        3240            clr     a
10EA 08        3241            inc     r0
10EB 36        3242            addc    a,@r0
10EC F6        3243            mov     @r0,a
10ED E500      3244            mov     a,_bp
10EF 2416      3245            add     a,#0x16
10F1 F8        3246            mov     r0,a
10F2 7414      3247            mov     a,#0x14
10F4 26        3248            add     a,@r0
10F5 F6        3249            mov     @r0,a
10F6 E4        3250            clr     a
10F7 08        3251            inc     r0
10F8 36        3252            addc    a,@r0
10F9 F6        3253            mov     @r0,a
10FA E500      3254            mov     a,_bp
10FC 2406      3255            add     a,#0x06
10FE F8        3256            mov     r0,a
10FF 06        3257            inc     @r0
1100 B60080    3258            cjne    @r0,#0x00,L010024?
1103 08        3259            inc     r0
1104 06        3260            inc     @r0
1105           3261   L010024?:
1105 020100    3262            ljmp    L010007?
1108           3263   L010010?:
1108           3264   ;        C:\Source\call51\Examples\c\gs.c:187: return intol;
1108 E500      3265            mov     a,_bp
110A 2408      3266            add     a,#0x08
110C F8        3267            mov     r0,a
110D 8682      3268            mov     dpl,@r0
110F 08        3269            inc     r0
1110 8683      3270            mov     dph,@r0
1112 850081    3271            mov     sp,_bp
1115 D000      3272            pop     _bp
1117 22        3273            ret
1118           3274   ;------------------------------------------------------------
1118           3275   ;Allocation info for local variables in function 'print_syseq_x'
1118           3276   ;------------------------------------------------------------
1118           3277   ;syseq                     Allocated to stack - offset 1
1118           3278   ;j                         Allocated to stack - offset 4
1118           3279   ;digits                    Allocated to registers r2 r3 
1118           3280   ;outfmt                    Allocated to stack - offset 6
1118           3281   ;sloc0                     Allocated to stack - offset 26
1118           3282   ;sloc1                     Allocated to stack - offset 28
1118           3283   ;sloc2                     Allocated to stack - offset 29
1118           3284   ;------------------------------------------------------------
1118           3285   ;        C:\Source\call51\Examples\c\gs.c:191: void print_syseq_x(_syseq * syseq) reentrant
1118           3286   ;        -----------------------------------------
1118           3287   ;         function print_syseq_x
1118           3288   ;        -----------------------------------------
1118           3289   _print_syseq_x:
1118 C000      3290            push    _bp
111A 858100    3291            mov     _bp,sp
111D C082      3292            push    dpl
111F C083      3293            push    dph
1121 C0F0      3294            push    b
1123 E581      3295            mov     a,sp
1125 2420      3296            add     a,#0x20
1127 F581      3297            mov     sp,a
1129           3298   ;        C:\Source\call51\Examples\c\gs.c:197: digits=(int)log10(1.0/syseq->tol);
1129 A800      3299            mov     r0,_bp
112B 08        3300            inc     r0
112C 7406      3301            mov     a,#0x06
112E 26        3302            add     a,@r0
112F FD        3303            mov     r5,a
1130 E4        3304            clr     a
1131 08        3305            inc     r0
1132 36        3306            addc    a,@r0
1133 FE        3307            mov     r6,a
1134 08        3308            inc     r0
1135 8607      3309            mov     ar7,@r0
1137 8D82      3310            mov     dpl,r5
1139 8E83      3311            mov     dph,r6
113B 8FF0      3312            mov     b,r7
113D 120100    3313            lcall   __gptrget
1140 FD        3314            mov     r5,a
1141 A3        3315            inc     dptr
1142 120100    3316            lcall   __gptrget
1145 FE        3317            mov     r6,a
1146 A3        3318            inc     dptr
1147 120100    3319            lcall   __gptrget
114A FF        3320            mov     r7,a
114B A3        3321            inc     dptr
114C 120100    3322            lcall   __gptrget
114F FA        3323            mov     r2,a
1150 C005      3324            push    ar5
1152 C006      3325            push    ar6
1154 C007      3326            push    ar7
1156 C002      3327            push    ar2
1158 900000    3328            mov     dptr,#0x0000
115B 75F080    3329            mov     b,#0x80
115E 743F      3330            mov     a,#0x3F
1160 120100    3331            lcall   ___fsdiv
1163 AA82      3332            mov     r2,dpl
1165 AB83      3333            mov     r3,dph
1167 ACF0      3334            mov     r4,b
1169 FD        3335            mov     r5,a
116A E581      3336            mov     a,sp
116C 24FC      3337            add     a,#0xfc
116E F581      3338            mov     sp,a
1170 8A82      3339            mov     dpl,r2
1172 8B83      3340            mov     dph,r3
1174 8CF0      3341            mov     b,r4
1176 ED        3342            mov     a,r5
1177 120100    3343            lcall   _log10f
117A 120100    3344            lcall   ___fs2sint
117D AA82      3345            mov     r2,dpl
117F AB83      3346            mov     r3,dph
1181           3347   ;        C:\Source\call51\Examples\c\gs.c:198: sprintf(outfmt, "%%%d.%df", digits+3, digits-1);
1181 EA        3348            mov     a,r2
1182 24FF      3349            add     a,#0xff
1184 FC        3350            mov     r4,a
1185 EB        3351            mov     a,r3
1186 34FF      3352            addc    a,#0xff
1188 FD        3353            mov     r5,a
1189 E500      3354            mov     a,_bp
118B 241A      3355            add     a,#0x1a
118D F8        3356            mov     r0,a
118E 7403      3357            mov     a,#0x03
1190 2A        3358            add     a,r2
1191 F6        3359            mov     @r0,a
1192 E4        3360            clr     a
1193 3B        3361            addc    a,r3
1194 08        3362            inc     r0
1195 F6        3363            mov     @r0,a
1196 E500      3364            mov     a,_bp
1198 2406      3365            add     a,#0x06
119A FE        3366            mov     r6,a
119B FF        3367            mov     r7,a
119C 7A00      3368            mov     r2,#0x00
119E 7B40      3369            mov     r3,#0x40
11A0 C006      3370            push    ar6
11A2 C004      3371            push    ar4
11A4 C005      3372            push    ar5
11A6 E500      3373            mov     a,_bp
11A8 241A      3374            add     a,#0x1a
11AA F8        3375            mov     r0,a
11AB E6        3376            mov     a,@r0
11AC C0E0      3377            push    acc
11AE 08        3378            inc     r0
11AF E6        3379            mov     a,@r0
11B0 C0E0      3380            push    acc
11B2 7440      3381            mov     a,#__str_4
11B4 C0E0      3382            push    acc
11B6 7490      3383            mov     a,#(__str_4 >> 8)
11B8 C0E0      3384            push    acc
11BA 7480      3385            mov     a,#0x80
11BC C0E0      3386            push    acc
11BE C007      3387            push    ar7
11C0 C002      3388            push    ar2
11C2 C003      3389            push    ar3
11C4 120100    3390            lcall   _sprintf
11C7 E581      3391            mov     a,sp
11C9 24F6      3392            add     a,#0xf6
11CB F581      3393            mov     sp,a
11CD D006      3394            pop     ar6
11CF           3395   ;        C:\Source\call51\Examples\c\gs.c:200: for(j=0; j<syseq->order; j++)
11CF A800      3396            mov     r0,_bp
11D1 08        3397            inc     r0
11D2 7410      3398            mov     a,#0x10
11D4 26        3399            add     a,@r0
11D5 FA        3400            mov     r2,a
11D6 E4        3401            clr     a
11D7 08        3402            inc     r0
11D8 36        3403            addc    a,@r0
11D9 FB        3404            mov     r3,a
11DA 08        3405            inc     r0
11DB 8604      3406            mov     ar4,@r0
11DD E500      3407            mov     a,_bp
11DF 241C      3408            add     a,#0x1c
11E1 F8        3409            mov     r0,a
11E2 A606      3410            mov     @r0,ar6
11E4 E500      3411            mov     a,_bp
11E6 2404      3412            add     a,#0x04
11E8 F8        3413            mov     r0,a
11E9 E4        3414            clr     a
11EA F6        3415            mov     @r0,a
11EB 08        3416            inc     r0
11EC F6        3417            mov     @r0,a
11ED E500      3418            mov     a,_bp
11EF 241A      3419            add     a,#0x1a
11F1 F8        3420            mov     r0,a
11F2 E4        3421            clr     a
11F3 F6        3422            mov     @r0,a
11F4 08        3423            inc     r0
11F5 F6        3424            mov     @r0,a
11F6           3425   L011004?:
11F6 A800      3426            mov     r0,_bp
11F8 08        3427            inc     r0
11F9 8682      3428            mov     dpl,@r0
11FB 08        3429            inc     r0
11FC 8683      3430            mov     dph,@r0
11FE 08        3431            inc     r0
11FF 86F0      3432            mov     b,@r0
1201 120100    3433            lcall   __gptrget
1204 FD        3434            mov     r5,a
1205 A3        3435            inc     dptr
1206 120100    3436            lcall   __gptrget
1209 FE        3437            mov     r6,a
120A E500      3438            mov     a,_bp
120C 2404      3439            add     a,#0x04
120E F8        3440            mov     r0,a
120F C3        3441            clr     c
1210 E6        3442            mov     a,@r0
1211 9D        3443            subb    a,r5
1212 08        3444            inc     r0
1213 E6        3445            mov     a,@r0
1214 6480      3446            xrl     a,#0x80
1216 8EF0      3447            mov     b,r6
1218 63F080    3448            xrl     b,#0x80
121B 95F0      3449            subb    a,b
121D 4001      3450            jc      L011014?
121F 020100    3451            ljmp    L011008?
1222           3452   L011014?:
1222           3453   ;        C:\Source\call51\Examples\c\gs.c:202: printf(outfmt, syseq->eq[j].x);
1222 8A82      3454            mov     dpl,r2
1224 8B83      3455            mov     dph,r3
1226 8CF0      3456            mov     b,r4
1228 120100    3457            lcall   __gptrget
122B FE        3458            mov     r6,a
122C A3        3459            inc     dptr
122D 120100    3460            lcall   __gptrget
1230 FF        3461            mov     r7,a
1231 A3        3462            inc     dptr
1232 120100    3463            lcall   __gptrget
1235 FD        3464            mov     r5,a
1236 E500      3465            mov     a,_bp
1238 241A      3466            add     a,#0x1a
123A F8        3467            mov     r0,a
123B E6        3468            mov     a,@r0
123C 2E        3469            add     a,r6
123D FE        3470            mov     r6,a
123E 08        3471            inc     r0
123F E6        3472            mov     a,@r0
1240 3F        3473            addc    a,r7
1241 FF        3474            mov     r7,a
1242 7408      3475            mov     a,#0x08
1244 2E        3476            add     a,r6
1245 FE        3477            mov     r6,a
1246 E4        3478            clr     a
1247 3F        3479            addc    a,r7
1248 FF        3480            mov     r7,a
1249 C002      3481            push    ar2
124B C003      3482            push    ar3
124D C004      3483            push    ar4
124F 8E82      3484            mov     dpl,r6
1251 8F83      3485            mov     dph,r7
1253 8DF0      3486            mov     b,r5
1255 E500      3487            mov     a,_bp
1257 241D      3488            add     a,#0x1d
1259 F8        3489            mov     r0,a
125A 120100    3490            lcall   __gptrget
125D F6        3491            mov     @r0,a
125E A3        3492            inc     dptr
125F 120100    3493            lcall   __gptrget
1262 08        3494            inc     r0
1263 F6        3495            mov     @r0,a
1264 A3        3496            inc     dptr
1265 120100    3497            lcall   __gptrget
1268 08        3498            inc     r0
1269 F6        3499            mov     @r0,a
126A A3        3500            inc     dptr
126B 120100    3501            lcall   __gptrget
126E 08        3502            inc     r0
126F F6        3503            mov     @r0,a
1270 E500      3504            mov     a,_bp
1272 241C      3505            add     a,#0x1c
1274 F8        3506            mov     r0,a
1275 8603      3507            mov     ar3,@r0
1277 7C00      3508            mov     r4,#0x00
1279 7A40      3509            mov     r2,#0x40
127B C002      3510            push    ar2
127D C003      3511            push    ar3
127F C004      3512            push    ar4
1281 E500      3513            mov     a,_bp
1283 241D      3514            add     a,#0x1d
1285 F8        3515            mov     r0,a
1286 E6        3516            mov     a,@r0
1287 C0E0      3517            push    acc
1289 08        3518            inc     r0
128A E6        3519            mov     a,@r0
128B C0E0      3520            push    acc
128D 08        3521            inc     r0
128E E6        3522            mov     a,@r0
128F C0E0      3523            push    acc
1291 08        3524            inc     r0
1292 E6        3525            mov     a,@r0
1293 C0E0      3526            push    acc
1295 C003      3527            push    ar3
1297 C004      3528            push    ar4
1299 C002      3529            push    ar2
129B 120100    3530            lcall   _printf
129E E581      3531            mov     a,sp
12A0 24F9      3532            add     a,#0xf9
12A2 F581      3533            mov     sp,a
12A4 D004      3534            pop     ar4
12A6 D003      3535            pop     ar3
12A8 D002      3536            pop     ar2
12AA           3537   ;        C:\Source\call51\Examples\c\gs.c:203: if(j<(syseq->order-1))
12AA A800      3538            mov     r0,_bp
12AC 08        3539            inc     r0
12AD 8682      3540            mov     dpl,@r0
12AF 08        3541            inc     r0
12B0 8683      3542            mov     dph,@r0
12B2 08        3543            inc     r0
12B3 86F0      3544            mov     b,@r0
12B5 120100    3545            lcall   __gptrget
12B8 FA        3546            mov     r2,a
12B9 A3        3547            inc     dptr
12BA 120100    3548            lcall   __gptrget
12BD FB        3549            mov     r3,a
12BE 1A        3550            dec     r2
12BF BAFF80    3551            cjne    r2,#0xff,L011015?
12C2 1B        3552            dec     r3
12C3           3553   L011015?:
12C3 E500      3554            mov     a,_bp
12C5 2404      3555            add     a,#0x04
12C7 F8        3556            mov     r0,a
12C8 C3        3557            clr     c
12C9 E6        3558            mov     a,@r0
12CA 9A        3559            subb    a,r2
12CB 08        3560            inc     r0
12CC E6        3561            mov     a,@r0
12CD 6480      3562            xrl     a,#0x80
12CF 8BF0      3563            mov     b,r3
12D1 63F080    3564            xrl     b,#0x80
12D4 95F0      3565            subb    a,b
12D6 D004      3566            pop     ar4
12D8 D003      3567            pop     ar3
12DA D002      3568            pop     ar2
12DC 5001      3569            jnc     L011002?
12DE           3570   ;        C:\Source\call51\Examples\c\gs.c:204: printf(", ");
12DE C002      3571            push    ar2
12E0 C003      3572            push    ar3
12E2 C004      3573            push    ar4
12E4 7400      3574            mov     a,#__str_5
12E6 C0E0      3575            push    acc
12E8 7492      3576            mov     a,#(__str_5 >> 8)
12EA C0E0      3577            push    acc
12EC 7480      3578            mov     a,#0x80
12EE C0E0      3579            push    acc
12F0 120100    3580            lcall   _printf
12F3 1581      3581            dec     sp
12F5 1581      3582            dec     sp
12F7 1581      3583            dec     sp
12F9 D004      3584            pop     ar4
12FB D003      3585            pop     ar3
12FD D002      3586            pop     ar2
12FF 8001      3587            sjmp    L011006?
1301           3588   L011002?:
1301           3589   ;        C:\Source\call51\Examples\c\gs.c:206: printf("\n");
1301 C002      3590            push    ar2
1303 C003      3591            push    ar3
1305 C004      3592            push    ar4
1307 7480      3593            mov     a,#__str_6
1309 C0E0      3594            push    acc
130B 7492      3595            mov     a,#(__str_6 >> 8)
130D C0E0      3596            push    acc
130F 7480      3597            mov     a,#0x80
1311 C0E0      3598            push    acc
1313 120100    3599            lcall   _printf
1316 1581      3600            dec     sp
1318 1581      3601            dec     sp
131A 1581      3602            dec     sp
131C D004      3603            pop     ar4
131E D003      3604            pop     ar3
1320 D002      3605            pop     ar2
1322           3606   L011006?:
1322           3607   ;        C:\Source\call51\Examples\c\gs.c:200: for(j=0; j<syseq->order; j++)
1322 E500      3608            mov     a,_bp
1324 241A      3609            add     a,#0x1a
1326 F8        3610            mov     r0,a
1327 7414      3611            mov     a,#0x14
1329 26        3612            add     a,@r0
132A F6        3613            mov     @r0,a
132B E4        3614            clr     a
132C 08        3615            inc     r0
132D 36        3616            addc    a,@r0
132E F6        3617            mov     @r0,a
132F E500      3618            mov     a,_bp
1331 2404      3619            add     a,#0x04
1333 F8        3620            mov     r0,a
1334 06        3621            inc     @r0
1335 B600C0    3622            cjne    @r0,#0x00,L011017?
1338 08        3623            inc     r0
1339 06        3624            inc     @r0
133A           3625   L011017?:
133A 020100    3626            ljmp    L011004?
133D           3627   L011008?:
133D 850081    3628            mov     sp,_bp
1340 D000      3629            pop     _bp
1342 22        3630            ret
1343           3631   ;------------------------------------------------------------
1343           3632   ;Allocation info for local variables in function 'solve_syseq'
1343           3633   ;------------------------------------------------------------
1343           3634   ;syseq                     Allocated to stack - offset 1
1343           3635   ;intol                     Allocated to registers r2 r3 
1343           3636   ;sloc0                     Allocated to stack - offset 4
1343           3637   ;sloc1                     Allocated to stack - offset 9
1343           3638   ;sloc2                     Allocated to stack - offset 7
1343           3639   ;sloc3                     Allocated to stack - offset 10
1343           3640   ;sloc4                     Allocated to stack - offset 17
1343           3641   ;------------------------------------------------------------
1343           3642   ;        C:\Source\call51\Examples\c\gs.c:212: int solve_syseq(_syseq * syseq) reentrant
1343           3643   ;        -----------------------------------------
1343           3644   ;         function solve_syseq
1343           3645   ;        -----------------------------------------
1343           3646   _solve_syseq:
1343 C000      3647            push    _bp
1345 858100    3648            mov     _bp,sp
1348 C082      3649            push    dpl
134A C083      3650            push    dph
134C C0F0      3651            push    b
134E E581      3652            mov     a,sp
1350 240C      3653            add     a,#0x0c
1352 F581      3654            mov     sp,a
1354           3655   ;        C:\Source\call51\Examples\c\gs.c:214: if(syseq->debug)
1354 A800      3656            mov     r0,_bp
1356 08        3657            inc     r0
1357 740E      3658            mov     a,#0x0E
1359 26        3659            add     a,@r0
135A FD        3660            mov     r5,a
135B E4        3661            clr     a
135C 08        3662            inc     r0
135D 36        3663            addc    a,@r0
135E FE        3664            mov     r6,a
135F 08        3665            inc     r0
1360 8607      3666            mov     ar7,@r0
1362 8D82      3667            mov     dpl,r5
1364 8E83      3668            mov     dph,r6
1366 8FF0      3669            mov     b,r7
1368 120100    3670            lcall   __gptrget
136B FA        3671            mov     r2,a
136C A3        3672            inc     dptr
136D 120100    3673            lcall   __gptrget
1370 FB        3674            mov     r3,a
1371 4A        3675            orl     a,r2
1372 6001      3676            jz      L012002?
1374           3677   ;        C:\Source\call51\Examples\c\gs.c:216: printf("x(%d)= ", 0);
1374 C005      3678            push    ar5
1376 C006      3679            push    ar6
1378 C007      3680            push    ar7
137A E4        3681            clr     a
137B C0E0      3682            push    acc
137D C0E0      3683            push    acc
137F 7440      3684            mov     a,#__str_7
1381 C0E0      3685            push    acc
1383 7493      3686            mov     a,#(__str_7 >> 8)
1385 C0E0      3687            push    acc
1387 7480      3688            mov     a,#0x80
1389 C0E0      3689            push    acc
138B 120100    3690            lcall   _printf
138E E581      3691            mov     a,sp
1390 24FB      3692            add     a,#0xfb
1392 F581      3693            mov     sp,a
1394           3694   ;        C:\Source\call51\Examples\c\gs.c:217: print_syseq_x(syseq);
1394 A800      3695            mov     r0,_bp
1396 08        3696            inc     r0
1397 8682      3697            mov     dpl,@r0
1399 08        3698            inc     r0
139A 8683      3699            mov     dph,@r0
139C 08        3700            inc     r0
139D 86F0      3701            mov     b,@r0
139F 120100    3702            lcall   _print_syseq_x
13A2 D007      3703            pop     ar7
13A4 D006      3704            pop     ar6
13A6 D005      3705            pop     ar5
13A8           3706   L012002?:
13A8           3707   ;        C:\Source\call51\Examples\c\gs.c:220: for(syseq->numiter=1; syseq->numiter!=syseq->maxiter; syseq->numiter++)
13A8 A800      3708            mov     r0,_bp
13AA 08        3709            inc     r0
13AB E500      3710            mov     a,_bp
13AD 240A      3711            add     a,#0x0a
13AF F9        3712            mov     r1,a
13B0 7404      3713            mov     a,#0x04
13B2 26        3714            add     a,@r0
13B3 F7        3715            mov     @r1,a
13B4 E4        3716            clr     a
13B5 08        3717            inc     r0
13B6 36        3718            addc    a,@r0
13B7 09        3719            inc     r1
13B8 F7        3720            mov     @r1,a
13B9 08        3721            inc     r0
13BA 09        3722            inc     r1
13BB E6        3723            mov     a,@r0
13BC F7        3724            mov     @r1,a
13BD E500      3725            mov     a,_bp
13BF 240A      3726            add     a,#0x0a
13C1 F8        3727            mov     r0,a
13C2 8682      3728            mov     dpl,@r0
13C4 08        3729            inc     r0
13C5 8683      3730            mov     dph,@r0
13C7 08        3731            inc     r0
13C8 86F0      3732            mov     b,@r0
13CA 7401      3733            mov     a,#0x01
13CC 120100    3734            lcall   __gptrput
13CF A3        3735            inc     dptr
13D0 E4        3736            clr     a
13D1 120100    3737            lcall   __gptrput
13D4 A800      3738            mov     r0,_bp
13D6 08        3739            inc     r0
13D7 E500      3740            mov     a,_bp
13D9 2404      3741            add     a,#0x04
13DB F9        3742            mov     r1,a
13DC 7402      3743            mov     a,#0x02
13DE 26        3744            add     a,@r0
13DF F7        3745            mov     @r1,a
13E0 E4        3746            clr     a
13E1 08        3747            inc     r0
13E2 36        3748            addc    a,@r0
13E3 09        3749            inc     r1
13E4 F7        3750            mov     @r1,a
13E5 08        3751            inc     r0
13E6 09        3752            inc     r1
13E7 E6        3753            mov     a,@r0
13E8 F7        3754            mov     @r1,a
13E9           3755   L012011?:
13E9 C005      3756            push    ar5
13EB C006      3757            push    ar6
13ED C007      3758            push    ar7
13EF E500      3759            mov     a,_bp
13F1 240A      3760            add     a,#0x0a
13F3 F8        3761            mov     r0,a
13F4 8682      3762            mov     dpl,@r0
13F6 08        3763            inc     r0
13F7 8683      3764            mov     dph,@r0
13F9 08        3765            inc     r0
13FA 86F0      3766            mov     b,@r0
13FC 120100    3767            lcall   __gptrget
13FF FA        3768            mov     r2,a
1400 A3        3769            inc     dptr
1401 120100    3770            lcall   __gptrget
1404 FB        3771            mov     r3,a
1405 E500      3772            mov     a,_bp
1407 2404      3773            add     a,#0x04
1409 F8        3774            mov     r0,a
140A 8682      3775            mov     dpl,@r0
140C 08        3776            inc     r0
140D 8683      3777            mov     dph,@r0
140F 08        3778            inc     r0
1410 86F0      3779            mov     b,@r0
1412 120100    3780            lcall   __gptrget
1415 FF        3781            mov     r7,a
1416 A3        3782            inc     dptr
1417 120100    3783            lcall   __gptrget
141A FD        3784            mov     r5,a
141B EA        3785            mov     a,r2
141C B507C0    3786            cjne    a,ar7,L012025?
141F EB        3787            mov     a,r3
1420 B505C0    3788            cjne    a,ar5,L012025?
1423 D007      3789            pop     ar7
1425 D006      3790            pop     ar6
1427 D005      3791            pop     ar5
1429 020100    3792            ljmp    L012014?
142C           3793   L012025?:
142C D007      3794            pop     ar7
142E           3795   ;        C:\Source\call51\Examples\c\gs.c:223: intol=eval_syseq(syseq);
142E C007      3796            push    ar7
1430 A800      3797            mov     r0,_bp
1432 08        3798            inc     r0
1433 8682      3799            mov     dpl,@r0
1435 08        3800            inc     r0
1436 8683      3801            mov     dph,@r0
1438 08        3802            inc     r0
1439 86F0      3803            mov     b,@r0
143B C007      3804            push    ar7
143D 120100    3805            lcall   _eval_syseq
1440 AD82      3806            mov     r5,dpl
1442 AE83      3807            mov     r6,dph
1444 D007      3808            pop     ar7
1446 8D02      3809            mov     ar2,r5
1448 8E03      3810            mov     ar3,r6
144A           3811   ;        C:\Source\call51\Examples\c\gs.c:225: if(syseq->debug)
144A A800      3812            mov     r0,_bp
144C 08        3813            inc     r0
144D E500      3814            mov     a,_bp
144F 2407      3815            add     a,#0x07
1451 F9        3816            mov     r1,a
1452 740E      3817            mov     a,#0x0E
1454 26        3818            add     a,@r0
1455 F7        3819            mov     @r1,a
1456 E4        3820            clr     a
1457 08        3821            inc     r0
1458 36        3822            addc    a,@r0
1459 09        3823            inc     r1
145A F7        3824            mov     @r1,a
145B 08        3825            inc     r0
145C 09        3826            inc     r1
145D E6        3827            mov     a,@r0
145E F7        3828            mov     @r1,a
145F E500      3829            mov     a,_bp
1461 2407      3830            add     a,#0x07
1463 F8        3831            mov     r0,a
1464 8682      3832            mov     dpl,@r0
1466 08        3833            inc     r0
1467 8683      3834            mov     dph,@r0
1469 08        3835            inc     r0
146A 86F0      3836            mov     b,@r0
146C 120100    3837            lcall   __gptrget
146F FD        3838            mov     r5,a
1470 A3        3839            inc     dptr
1471 120100    3840            lcall   __gptrget
1474 4D        3841            orl     a,r5
1475 D007      3842            pop     ar7
1477 D006      3843            pop     ar6
1479 D005      3844            pop     ar5
147B 6001      3845            jz      L012004?
147D           3846   ;        C:\Source\call51\Examples\c\gs.c:227: printf("x(%d)= ", syseq->numiter);
147D C005      3847            push    ar5
147F C006      3848            push    ar6
1481 C007      3849            push    ar7
1483 E500      3850            mov     a,_bp
1485 240A      3851            add     a,#0x0a
1487 F8        3852            mov     r0,a
1488 8682      3853            mov     dpl,@r0
148A 08        3854            inc     r0
148B 8683      3855            mov     dph,@r0
148D 08        3856            inc     r0
148E 86F0      3857            mov     b,@r0
1490 120100    3858            lcall   __gptrget
1493 FD        3859            mov     r5,a
1494 A3        3860            inc     dptr
1495 120100    3861            lcall   __gptrget
1498 FE        3862            mov     r6,a
1499 C002      3863            push    ar2
149B C003      3864            push    ar3
149D C005      3865            push    ar5
149F C006      3866            push    ar6
14A1 C007      3867            push    ar7
14A3 C005      3868            push    ar5
14A5 C006      3869            push    ar6
14A7 7440      3870            mov     a,#__str_7
14A9 C0E0      3871            push    acc
14AB 7493      3872            mov     a,#(__str_7 >> 8)
14AD C0E0      3873            push    acc
14AF 7480      3874            mov     a,#0x80
14B1 C0E0      3875            push    acc
14B3 120100    3876            lcall   _printf
14B6 E581      3877            mov     a,sp
14B8 24FB      3878            add     a,#0xfb
14BA F581      3879            mov     sp,a
14BC           3880   ;        C:\Source\call51\Examples\c\gs.c:228: print_syseq_x(syseq);
14BC A800      3881            mov     r0,_bp
14BE 08        3882            inc     r0
14BF 8682      3883            mov     dpl,@r0
14C1 08        3884            inc     r0
14C2 8683      3885            mov     dph,@r0
14C4 08        3886            inc     r0
14C5 86F0      3887            mov     b,@r0
14C7 120100    3888            lcall   _print_syseq_x
14CA D007      3889            pop     ar7
14CC D006      3890            pop     ar6
14CE D005      3891            pop     ar5
14D0 D003      3892            pop     ar3
14D2 D002      3893            pop     ar2
14D4           3894   ;        C:\Source\call51\Examples\c\gs.c:241: return 0;
14D4 D007      3895            pop     ar7
14D6 D006      3896            pop     ar6
14D8 D005      3897            pop     ar5
14DA           3898   ;        C:\Source\call51\Examples\c\gs.c:228: print_syseq_x(syseq);
14DA           3899   L012004?:
14DA           3900   ;        C:\Source\call51\Examples\c\gs.c:231: if(intol)
14DA EA        3901            mov     a,r2
14DB 4B        3902            orl     a,r3
14DC 7001      3903            jnz     L012027?
14DE 020100    3904            ljmp    L012013?
14E1           3905   L012027?:
14E1           3906   ;        C:\Source\call51\Examples\c\gs.c:233: if(syseq->debug)
14E1 E500      3907            mov     a,_bp
14E3 2407      3908            add     a,#0x07
14E5 F8        3909            mov     r0,a
14E6 8682      3910            mov     dpl,@r0
14E8 08        3911            inc     r0
14E9 8683      3912            mov     dph,@r0
14EB 08        3913            inc     r0
14EC 86F0      3914            mov     b,@r0
14EE 120100    3915            lcall   __gptrget
14F1 FA        3916            mov     r2,a
14F2 A3        3917            inc     dptr
14F3 120100    3918            lcall   __gptrget
14F6 FB        3919            mov     r3,a
14F7 4A        3920            orl     a,r2
14F8 7001      3921            jnz     L012028?
14FA 020100    3922            ljmp    L012006?
14FD           3923   L012028?:
14FD           3924   ;        C:\Source\call51\Examples\c\gs.c:234: printf("%d-digit accuracy reached in %d iterations\n", (int) log10(1.0/syseq->tol), syseq->numiter);
14FD E500      3925            mov     a,_bp
14FF 240A      3926            add     a,#0x0a
1501 F8        3927            mov     r0,a
1502 8682      3928            mov     dpl,@r0
1504 08        3929            inc     r0
1505 8683      3930            mov     dph,@r0
1507 08        3931            inc     r0
1508 86F0      3932            mov     b,@r0
150A 120100    3933            lcall   __gptrget
150D FD        3934            mov     r5,a
150E A3        3935            inc     dptr
150F 120100    3936            lcall   __gptrget
1512 FE        3937            mov     r6,a
1513 A800      3938            mov     r0,_bp
1515 08        3939            inc     r0
1516 7406      3940            mov     a,#0x06
1518 26        3941            add     a,@r0
1519 FC        3942            mov     r4,a
151A E4        3943            clr     a
151B 08        3944            inc     r0
151C 36        3945            addc    a,@r0
151D FA        3946            mov     r2,a
151E 08        3947            inc     r0
151F 8603      3948            mov     ar3,@r0
1521 8C82      3949            mov     dpl,r4
1523 8A83      3950            mov     dph,r2
1525 8BF0      3951            mov     b,r3
1527 120100    3952            lcall   __gptrget
152A FC        3953            mov     r4,a
152B A3        3954            inc     dptr
152C 120100    3955            lcall   __gptrget
152F FA        3956            mov     r2,a
1530 A3        3957            inc     dptr
1531 120100    3958            lcall   __gptrget
1534 FB        3959            mov     r3,a
1535 A3        3960            inc     dptr
1536 120100    3961            lcall   __gptrget
1539 FF        3962            mov     r7,a
153A C005      3963            push    ar5
153C C006      3964            push    ar6
153E C004      3965            push    ar4
1540 C002      3966            push    ar2
1542 C003      3967            push    ar3
1544 C007      3968            push    ar7
1546 900000    3969            mov     dptr,#0x0000
1549 75F080    3970            mov     b,#0x80
154C 743F      3971            mov     a,#0x3F
154E 120100    3972            lcall   ___fsdiv
1551 AA82      3973            mov     r2,dpl
1553 AB83      3974            mov     r3,dph
1555 ACF0      3975            mov     r4,b
1557 FF        3976            mov     r7,a
1558 E581      3977            mov     a,sp
155A 24FC      3978            add     a,#0xfc
155C F581      3979            mov     sp,a
155E 8A82      3980            mov     dpl,r2
1560 8B83      3981            mov     dph,r3
1562 8CF0      3982            mov     b,r4
1564 EF        3983            mov     a,r7
1565 120100    3984            lcall   _log10f
1568 120100    3985            lcall   ___fs2sint
156B AA82      3986            mov     r2,dpl
156D AB83      3987            mov     r3,dph
156F C002      3988            push    ar2
1571 C003      3989            push    ar3
1573 7480      3990            mov     a,#__str_8
1575 C0E0      3991            push    acc
1577 7495      3992            mov     a,#(__str_8 >> 8)
1579 C0E0      3993            push    acc
157B 7480      3994            mov     a,#0x80
157D C0E0      3995            push    acc
157F 120100    3996            lcall   _printf
1582 E581      3997            mov     a,sp
1584 24F9      3998            add     a,#0xf9
1586 F581      3999            mov     sp,a
1588           4000   L012006?:
1588           4001   ;        C:\Source\call51\Examples\c\gs.c:235: return 1;
1588 900001    4002            mov     dptr,#0x0001
158B 020100    4003            ljmp    L012015?
158E           4004   L012013?:
158E           4005   ;        C:\Source\call51\Examples\c\gs.c:220: for(syseq->numiter=1; syseq->numiter!=syseq->maxiter; syseq->numiter++)
158E E500      4006            mov     a,_bp
1590 240A      4007            add     a,#0x0a
1592 F8        4008            mov     r0,a
1593 8682      4009            mov     dpl,@r0
1595 08        4010            inc     r0
1596 8683      4011            mov     dph,@r0
1598 08        4012            inc     r0
1599 86F0      4013            mov     b,@r0
159B 120100    4014            lcall   __gptrget
159E FA        4015            mov     r2,a
159F A3        4016            inc     dptr
15A0 120100    4017            lcall   __gptrget
15A3 FB        4018            mov     r3,a
15A4 0A        4019            inc     r2
15A5 BA0000    4020            cjne    r2,#0x00,L012029?
15A8 0B        4021            inc     r3
15A9           4022   L012029?:
15A9 E500      4023            mov     a,_bp
15AB 240A      4024            add     a,#0x0a
15AD F8        4025            mov     r0,a
15AE 8682      4026            mov     dpl,@r0
15B0 08        4027            inc     r0
15B1 8683      4028            mov     dph,@r0
15B3 08        4029            inc     r0
15B4 86F0      4030            mov     b,@r0
15B6 EA        4031            mov     a,r2
15B7 120100    4032            lcall   __gptrput
15BA A3        4033            inc     dptr
15BB EB        4034            mov     a,r3
15BC 120100    4035            lcall   __gptrput
15BF 020100    4036            ljmp    L012011?
15C2           4037   L012014?:
15C2           4038   ;        C:\Source\call51\Examples\c\gs.c:239: if(syseq->debug)
15C2 8D82      4039            mov     dpl,r5
15C4 8E83      4040            mov     dph,r6
15C6 8FF0      4041            mov     b,r7
15C8 120100    4042            lcall   __gptrget
15CB FD        4043            mov     r5,a
15CC A3        4044            inc     dptr
15CD 120100    4045            lcall   __gptrget
15D0 FE        4046            mov     r6,a
15D1 4D        4047            orl     a,r5
15D2 7001      4048            jnz     L012030?
15D4 020100    4049            ljmp    L012010?
15D7           4050   L012030?:
15D7           4051   ;        C:\Source\call51\Examples\c\gs.c:240: printf("ERROR: %d-digit accuracy not reached in %d iterations\n", (int) log10(1.0/syseq->tol), syseq->numiter);
15D7 E500      4052            mov     a,_bp
15D9 240A      4053            add     a,#0x0a
15DB F8        4054            mov     r0,a
15DC 8682      4055            mov     dpl,@r0
15DE 08        4056            inc     r0
15DF 8683      4057            mov     dph,@r0
15E1 08        4058            inc     r0
15E2 86F0      4059            mov     b,@r0
15E4 120100    4060            lcall   __gptrget
15E7 FA        4061            mov     r2,a
15E8 A3        4062            inc     dptr
15E9 120100    4063            lcall   __gptrget
15EC FB        4064            mov     r3,a
15ED A800      4065            mov     r0,_bp
15EF 08        4066            inc     r0
15F0 7406      4067            mov     a,#0x06
15F2 26        4068            add     a,@r0
15F3 FC        4069            mov     r4,a
15F4 E4        4070            clr     a
15F5 08        4071            inc     r0
15F6 36        4072            addc    a,@r0
15F7 FD        4073            mov     r5,a
15F8 08        4074            inc     r0
15F9 8606      4075            mov     ar6,@r0
15FB 8C82      4076            mov     dpl,r4
15FD 8D83      4077            mov     dph,r5
15FF 8EF0      4078            mov     b,r6
1601 120100    4079            lcall   __gptrget
1604 FC        4080            mov     r4,a
1605 A3        4081            inc     dptr
1606 120100    4082            lcall   __gptrget
1609 FD        4083            mov     r5,a
160A A3        4084            inc     dptr
160B 120100    4085            lcall   __gptrget
160E FE        4086            mov     r6,a
160F A3        4087            inc     dptr
1610 120100    4088            lcall   __gptrget
1613 FF        4089            mov     r7,a
1614 C002      4090            push    ar2
1616 C003      4091            push    ar3
1618 C004      4092            push    ar4
161A C005      4093            push    ar5
161C C006      4094            push    ar6
161E C007      4095            push    ar7
1620 900000    4096            mov     dptr,#0x0000
1623 75F080    4097            mov     b,#0x80
1626 743F      4098            mov     a,#0x3F
1628 120100    4099            lcall   ___fsdiv
162B AC82      4100            mov     r4,dpl
162D AD83      4101            mov     r5,dph
162F AEF0      4102            mov     r6,b
1631 FF        4103            mov     r7,a
1632 E581      4104            mov     a,sp
1634 24FC      4105            add     a,#0xfc
1636 F581      4106            mov     sp,a
1638 8C82      4107            mov     dpl,r4
163A 8D83      4108            mov     dph,r5
163C 8EF0      4109            mov     b,r6
163E EF        4110            mov     a,r7
163F 120100    4111            lcall   _log10f
1642 120100    4112            lcall   ___fs2sint
1645 AC82      4113            mov     r4,dpl
1647 AD83      4114            mov     r5,dph
1649 C004      4115            push    ar4
164B C005      4116            push    ar5
164D 74C0      4117            mov     a,#__str_9
164F C0E0      4118            push    acc
1651 7496      4119            mov     a,#(__str_9 >> 8)
1653 C0E0      4120            push    acc
1655 7480      4121            mov     a,#0x80
1657 C0E0      4122            push    acc
1659 120100    4123            lcall   _printf
165C E581      4124            mov     a,sp
165E 24F9      4125            add     a,#0xf9
1660 F581      4126            mov     sp,a
1662           4127   L012010?:
1662           4128   ;        C:\Source\call51\Examples\c\gs.c:241: return 0;
1662 900000    4129            mov     dptr,#0x0000
1665           4130   L012015?:
1665 850081    4131            mov     sp,_bp
1668 D000      4132            pop     _bp
166A 22        4133            ret
166B           4134   ;------------------------------------------------------------
166B           4135   ;Allocation info for local variables in function 'zero_start_syseq'
166B           4136   ;------------------------------------------------------------
166B           4137   ;syseq                     Allocated to registers r2 r3 r4 
166B           4138   ;j                         Allocated to stack - offset 1
166B           4139   ;sloc0                     Allocated to stack - offset 3
166B           4140   ;sloc1                     Allocated to stack - offset 5
166B           4141   ;sloc2                     Allocated to stack - offset 8
166B           4142   ;sloc3                     Allocated to stack - offset 14
166B           4143   ;sloc4                     Allocated to stack - offset 11
166B           4144   ;------------------------------------------------------------
166B           4145   ;        C:\Source\call51\Examples\c\gs.c:246: void zero_start_syseq(_syseq * syseq) reentrant
166B           4146   ;        -----------------------------------------
166B           4147   ;         function zero_start_syseq
166B           4148   ;        -----------------------------------------
166B           4149   _zero_start_syseq:
166B C000      4150            push    _bp
166D E581      4151            mov     a,sp
166F F500      4152            mov     _bp,a
1671 240E      4153            add     a,#0x0e
1673 F581      4154            mov     sp,a
1675 AA82      4155            mov     r2,dpl
1677 AB83      4156            mov     r3,dph
1679 ACF0      4157            mov     r4,b
167B           4158   ;        C:\Source\call51\Examples\c\gs.c:249: for(j=0; j<syseq->order; j++)
167B E500      4159            mov     a,_bp
167D 2405      4160            add     a,#0x05
167F F8        4161            mov     r0,a
1680 7410      4162            mov     a,#0x10
1682 2A        4163            add     a,r2
1683 F6        4164            mov     @r0,a
1684 E4        4165            clr     a
1685 3B        4166            addc    a,r3
1686 08        4167            inc     r0
1687 F6        4168            mov     @r0,a
1688 08        4169            inc     r0
1689 A604      4170            mov     @r0,ar4
168B A800      4171            mov     r0,_bp
168D 08        4172            inc     r0
168E E4        4173            clr     a
168F F6        4174            mov     @r0,a
1690 08        4175            inc     r0
1691 F6        4176            mov     @r0,a
1692 E500      4177            mov     a,_bp
1694 2403      4178            add     a,#0x03
1696 F8        4179            mov     r0,a
1697 E4        4180            clr     a
1698 F6        4181            mov     @r0,a
1699 08        4182            inc     r0
169A F6        4183            mov     @r0,a
169B           4184   L013001?:
169B 8A82      4185            mov     dpl,r2
169D 8B83      4186            mov     dph,r3
169F 8CF0      4187            mov     b,r4
16A1 120100    4188            lcall   __gptrget
16A4 FD        4189            mov     r5,a
16A5 A3        4190            inc     dptr
16A6 120100    4191            lcall   __gptrget
16A9 FE        4192            mov     r6,a
16AA A800      4193            mov     r0,_bp
16AC 08        4194            inc     r0
16AD C3        4195            clr     c
16AE E6        4196            mov     a,@r0
16AF 9D        4197            subb    a,r5
16B0 08        4198            inc     r0
16B1 E6        4199            mov     a,@r0
16B2 6480      4200            xrl     a,#0x80
16B4 8EF0      4201            mov     b,r6
16B6 63F080    4202            xrl     b,#0x80
16B9 95F0      4203            subb    a,b
16BB 4001      4204            jc      L013010?
16BD 020100    4205            ljmp    L013005?
16C0           4206   L013010?:
16C0           4207   ;        C:\Source\call51\Examples\c\gs.c:250: syseq->eq[j].x=syseq->eq[j].b/syseq->eq[j].g;
16C0 C002      4208            push    ar2
16C2 C003      4209            push    ar3
16C4 C004      4210            push    ar4
16C6 E500      4211            mov     a,_bp
16C8 2405      4212            add     a,#0x05
16CA F8        4213            mov     r0,a
16CB 8682      4214            mov     dpl,@r0
16CD 08        4215            inc     r0
16CE 8683      4216            mov     dph,@r0
16D0 08        4217            inc     r0
16D1 86F0      4218            mov     b,@r0
16D3 120100    4219            lcall   __gptrget
16D6 FA        4220            mov     r2,a
16D7 A3        4221            inc     dptr
16D8 120100    4222            lcall   __gptrget
16DB FB        4223            mov     r3,a
16DC A3        4224            inc     dptr
16DD 120100    4225            lcall   __gptrget
16E0 FC        4226            mov     r4,a
16E1 E500      4227            mov     a,_bp
16E3 2403      4228            add     a,#0x03
16E5 F8        4229            mov     r0,a
16E6 E6        4230            mov     a,@r0
16E7 2A        4231            add     a,r2
16E8 FD        4232            mov     r5,a
16E9 08        4233            inc     r0
16EA E6        4234            mov     a,@r0
16EB 3B        4235            addc    a,r3
16EC FE        4236            mov     r6,a
16ED 8C07      4237            mov     ar7,r4
16EF E500      4238            mov     a,_bp
16F1 2408      4239            add     a,#0x08
16F3 F8        4240            mov     r0,a
16F4 7408      4241            mov     a,#0x08
16F6 2D        4242            add     a,r5
16F7 F6        4243            mov     @r0,a
16F8 E4        4244            clr     a
16F9 3E        4245            addc    a,r6
16FA 08        4246            inc     r0
16FB F6        4247            mov     @r0,a
16FC 08        4248            inc     r0
16FD A607      4249            mov     @r0,ar7
16FF 8D82      4250            mov     dpl,r5
1701 8E83      4251            mov     dph,r6
1703 8FF0      4252            mov     b,r7
1705 E500      4253            mov     a,_bp
1707 240B      4254            add     a,#0x0b
1709 F8        4255            mov     r0,a
170A 120100    4256            lcall   __gptrget
170D F6        4257            mov     @r0,a
170E A3        4258            inc     dptr
170F 120100    4259            lcall   __gptrget
1712 08        4260            inc     r0
1713 F6        4261            mov     @r0,a
1714 A3        4262            inc     dptr
1715 120100    4263            lcall   __gptrget
1718 08        4264            inc     r0
1719 F6        4265            mov     @r0,a
171A A3        4266            inc     dptr
171B 120100    4267            lcall   __gptrget
171E 08        4268            inc     r0
171F F6        4269            mov     @r0,a
1720 7404      4270            mov     a,#0x04
1722 2D        4271            add     a,r5
1723 FB        4272            mov     r3,a
1724 E4        4273            clr     a
1725 3E        4274            addc    a,r6
1726 FC        4275            mov     r4,a
1727 8F02      4276            mov     ar2,r7
1729 8B82      4277            mov     dpl,r3
172B 8C83      4278            mov     dph,r4
172D 8AF0      4279            mov     b,r2
172F 120100    4280            lcall   __gptrget
1732 FB        4281            mov     r3,a
1733 A3        4282            inc     dptr
1734 120100    4283            lcall   __gptrget
1737 FC        4284            mov     r4,a
1738 A3        4285            inc     dptr
1739 120100    4286            lcall   __gptrget
173C FA        4287            mov     r2,a
173D A3        4288            inc     dptr
173E 120100    4289            lcall   __gptrget
1741 FD        4290            mov     r5,a
1742 C003      4291            push    ar3
1744 C004      4292            push    ar4
1746 C002      4293            push    ar2
1748 C005      4294            push    ar5
174A E500      4295            mov     a,_bp
174C 240B      4296            add     a,#0x0b
174E F8        4297            mov     r0,a
174F 8682      4298            mov     dpl,@r0
1751 08        4299            inc     r0
1752 8683      4300            mov     dph,@r0
1754 08        4301            inc     r0
1755 86F0      4302            mov     b,@r0
1757 08        4303            inc     r0
1758 E6        4304            mov     a,@r0
1759 120100    4305            lcall   ___fsdiv
175C AA82      4306            mov     r2,dpl
175E AB83      4307            mov     r3,dph
1760 ACF0      4308            mov     r4,b
1762 FD        4309            mov     r5,a
1763 E581      4310            mov     a,sp
1765 24FC      4311            add     a,#0xfc
1767 F581      4312            mov     sp,a
1769 E500      4313            mov     a,_bp
176B 2408      4314            add     a,#0x08
176D F8        4315            mov     r0,a
176E 8682      4316            mov     dpl,@r0
1770 08        4317            inc     r0
1771 8683      4318            mov     dph,@r0
1773 08        4319            inc     r0
1774 86F0      4320            mov     b,@r0
1776 EA        4321            mov     a,r2
1777 120100    4322            lcall   __gptrput
177A A3        4323            inc     dptr
177B EB        4324            mov     a,r3
177C 120100    4325            lcall   __gptrput
177F A3        4326            inc     dptr
1780 EC        4327            mov     a,r4
1781 120100    4328            lcall   __gptrput
1784 A3        4329            inc     dptr
1785 ED        4330            mov     a,r5
1786 120100    4331            lcall   __gptrput
1789           4332   ;        C:\Source\call51\Examples\c\gs.c:249: for(j=0; j<syseq->order; j++)
1789 E500      4333            mov     a,_bp
178B 2403      4334            add     a,#0x03
178D F8        4335            mov     r0,a
178E 7414      4336            mov     a,#0x14
1790 26        4337            add     a,@r0
1791 F6        4338            mov     @r0,a
1792 E4        4339            clr     a
1793 08        4340            inc     r0
1794 36        4341            addc    a,@r0
1795 F6        4342            mov     @r0,a
1796 A800      4343            mov     r0,_bp
1798 08        4344            inc     r0
1799 06        4345            inc     @r0
179A B600C0    4346            cjne    @r0,#0x00,L013011?
179D 08        4347            inc     r0
179E 06        4348            inc     @r0
179F           4349   L013011?:
179F D004      4350            pop     ar4
17A1 D003      4351            pop     ar3
17A3 D002      4352            pop     ar2
17A5 020100    4353            ljmp    L013001?
17A8           4354   L013005?:
17A8 850081    4355            mov     sp,_bp
17AB D000      4356            pop     _bp
17AD 22        4357            ret
17AE           4358   ;------------------------------------------------------------
17AE           4359   ;Allocation info for local variables in function 'main'
17AE           4360   ;------------------------------------------------------------
17AE           4361   ;syseq                     Allocated with name '_main_syseq_1_1'
17AE           4362   ;------------------------------------------------------------
17AE           4363   ;        C:\Source\call51\Examples\c\gs.c:253: void main(void)
17AE           4364   ;        -----------------------------------------
17AE           4365   ;         function main
17AE           4366   ;        -----------------------------------------
17AE           4367   _main:
17AE           4368   ;        C:\Source\call51\Examples\c\gs.c:257: inituart();
17AE 120100    4369            lcall   _inituart
17B1           4370   ;        C:\Source\call51\Examples\c\gs.c:258: LEDRA=0;
17B1 75E800    4371            mov     _LEDRA,#0x00
17B4           4372   ;        C:\Source\call51\Examples\c\gs.c:259: LEDRB=0;
17B4           4373   ;        C:\Source\call51\Examples\c\gs.c:260: LEDRC=0;
17B4           4374   ;        C:\Source\call51\Examples\c\gs.c:261: LEDG=0;
17B4           4375   ;        C:\Source\call51\Examples\c\gs.c:263: printf("\n\nGauss-Seidel Solution of linear systems\nBy Jesus Calvino-Fraga (c) 2006-2011\n\n");  
17B4 E4        4376            clr     a
17B5 F595      4377            mov     _LEDRB,a
17B7 F59E      4378            mov     _LEDRC,a
17B9 F5F8      4379            mov     _LEDG,a
17BB 7400      4380            mov     a,#__str_10
17BD C0E0      4381            push    acc
17BF 7498      4382            mov     a,#(__str_10 >> 8)
17C1 C0E0      4383            push    acc
17C3 7480      4384            mov     a,#0x80
17C5 C0E0      4385            push    acc
17C7 120100    4386            lcall   _printf
17CA 1581      4387            dec     sp
17CC 1581      4388            dec     sp
17CE 1581      4389            dec     sp
17D0           4390   ;        C:\Source\call51\Examples\c\gs.c:266: syseq=create_syseq(4, 25, 1.0e-7, 1.0);
17D0 E4        4391            clr     a
17D1 C0E0      4392            push    acc
17D3 C0E0      4393            push    acc
17D5 7480      4394            mov     a,#0x80
17D7 C0E0      4395            push    acc
17D9 743F      4396            mov     a,#0x3F
17DB C0E0      4397            push    acc
17DD 7495      4398            mov     a,#0x95
17DF C0E0      4399            push    acc
17E1 74BF      4400            mov     a,#0xBF
17E3 C0E0      4401            push    acc
17E5 74D6      4402            mov     a,#0xD6
17E7 C0E0      4403            push    acc
17E9 7433      4404            mov     a,#0x33
17EB C0E0      4405            push    acc
17ED 7419      4406            mov     a,#0x19
17EF C0E0      4407            push    acc
17F1 E4        4408            clr     a
17F2 C0E0      4409            push    acc
17F4 900004    4410            mov     dptr,#0x0004
17F7 120100    4411            lcall   _create_syseq
17FA 858270    4412            mov     _main_syseq_1_1,dpl
17FD 858371    4413            mov     (_main_syseq_1_1 + 1),dph
1800 85F072    4414            mov     (_main_syseq_1_1 + 2),b
1803 E581      4415            mov     a,sp
1805 24F6      4416            add     a,#0xf6
1807 F581      4417            mov     sp,a
1809           4418   ;        C:\Source\call51\Examples\c\gs.c:268: add_syseq(syseq, 0, 0, 10.0);
1809 E4        4419            clr     a
180A C0E0      4420            push    acc
180C C0E0      4421            push    acc
180E 7420      4422            mov     a,#0x20
1810 C0E0      4423            push    acc
1812 7441      4424            mov     a,#0x41
1814 C0E0      4425            push    acc
1816 E4        4426            clr     a
1817 C0E0      4427            push    acc
1819 C0E0      4428            push    acc
181B E4        4429            clr     a
181C C0E0      4430            push    acc
181E C0E0      4431            push    acc
1820 857082    4432            mov     dpl,_main_syseq_1_1
1823 857183    4433            mov     dph,(_main_syseq_1_1 + 1)
1826 8572F0    4434            mov     b,(_main_syseq_1_1 + 2)
1829 120100    4435            lcall   _add_syseq
182C E581      4436            mov     a,sp
182E 24F8      4437            add     a,#0xf8
1830 F581      4438            mov     sp,a
1832           4439   ;        C:\Source\call51\Examples\c\gs.c:269: add_syseq(syseq, 0, 1, -1.0);
1832 E4        4440            clr     a
1833 C0E0      4441            push    acc
1835 C0E0      4442            push    acc
1837 7480      4443            mov     a,#0x80
1839 C0E0      4444            push    acc
183B 74BF      4445            mov     a,#0xBF
183D C0E0      4446            push    acc
183F 7401      4447            mov     a,#0x01
1841 C0E0      4448            push    acc
1843 E4        4449            clr     a
1844 C0E0      4450            push    acc
1846 E4        4451            clr     a
1847 C0E0      4452            push    acc
1849 C0E0      4453            push    acc
184B 857082    4454            mov     dpl,_main_syseq_1_1
184E 857183    4455            mov     dph,(_main_syseq_1_1 + 1)
1851 8572F0    4456            mov     b,(_main_syseq_1_1 + 2)
1854 120100    4457            lcall   _add_syseq
1857 E581      4458            mov     a,sp
1859 24F8      4459            add     a,#0xf8
185B F581      4460            mov     sp,a
185D           4461   ;        C:\Source\call51\Examples\c\gs.c:270: add_syseq(syseq, 0, 2, 2.0);
185D E4        4462            clr     a
185E C0E0      4463            push    acc
1860 C0E0      4464            push    acc
1862 C0E0      4465            push    acc
1864 7440      4466            mov     a,#0x40
1866 C0E0      4467            push    acc
1868 7402      4468            mov     a,#0x02
186A C0E0      4469            push    acc
186C E4        4470            clr     a
186D C0E0      4471            push    acc
186F E4        4472            clr     a
1870 C0E0      4473            push    acc
1872 C0E0      4474            push    acc
1874 857082    4475            mov     dpl,_main_syseq_1_1
1877 857183    4476            mov     dph,(_main_syseq_1_1 + 1)
187A 8572F0    4477            mov     b,(_main_syseq_1_1 + 2)
187D 120100    4478            lcall   _add_syseq
1880 E581      4479            mov     a,sp
1882 24F8      4480            add     a,#0xf8
1884 F581      4481            mov     sp,a
1886           4482   ;        C:\Source\call51\Examples\c\gs.c:271: syseq->eq[0].b=6.0;
1886 7410      4483            mov     a,#0x10
1888 2570      4484            add     a,_main_syseq_1_1
188A FD        4485            mov     r5,a
188B E4        4486            clr     a
188C 3571      4487            addc    a,(_main_syseq_1_1 + 1)
188E FE        4488            mov     r6,a
188F AF72      4489            mov     r7,(_main_syseq_1_1 + 2)
1891 8D82      4490            mov     dpl,r5
1893 8E83      4491            mov     dph,r6
1895 8FF0      4492            mov     b,r7
1897 120100    4493            lcall   __gptrget
189A FD        4494            mov     r5,a
189B A3        4495            inc     dptr
189C 120100    4496            lcall   __gptrget
189F FE        4497            mov     r6,a
18A0 A3        4498            inc     dptr
18A1 120100    4499            lcall   __gptrget
18A4 FF        4500            mov     r7,a
18A5 8D82      4501            mov     dpl,r5
18A7 8E83      4502            mov     dph,r6
18A9 8FF0      4503            mov     b,r7
18AB E4        4504            clr     a
18AC 120100    4505            lcall   __gptrput
18AF A3        4506            inc     dptr
18B0 E4        4507            clr     a
18B1 120100    4508            lcall   __gptrput
18B4 A3        4509            inc     dptr
18B5 74C0      4510            mov     a,#0xC0
18B7 120100    4511            lcall   __gptrput
18BA A3        4512            inc     dptr
18BB 7440      4513            mov     a,#0x40
18BD 120100    4514            lcall   __gptrput
18C0           4515   ;        C:\Source\call51\Examples\c\gs.c:273: add_syseq(syseq, 1, 0, -1.0);
18C0 E4        4516            clr     a
18C1 C0E0      4517            push    acc
18C3 C0E0      4518            push    acc
18C5 7480      4519            mov     a,#0x80
18C7 C0E0      4520            push    acc
18C9 74BF      4521            mov     a,#0xBF
18CB C0E0      4522            push    acc
18CD E4        4523            clr     a
18CE C0E0      4524            push    acc
18D0 C0E0      4525            push    acc
18D2 7401      4526            mov     a,#0x01
18D4 C0E0      4527            push    acc
18D6 E4        4528            clr     a
18D7 C0E0      4529            push    acc
18D9 857082    4530            mov     dpl,_main_syseq_1_1
18DC 857183    4531            mov     dph,(_main_syseq_1_1 + 1)
18DF 8572F0    4532            mov     b,(_main_syseq_1_1 + 2)
18E2 120100    4533            lcall   _add_syseq
18E5 E581      4534            mov     a,sp
18E7 24F8      4535            add     a,#0xf8
18E9 F581      4536            mov     sp,a
18EB           4537   ;        C:\Source\call51\Examples\c\gs.c:274: add_syseq(syseq, 1, 1, 11.0);
18EB E4        4538            clr     a
18EC C0E0      4539            push    acc
18EE C0E0      4540            push    acc
18F0 7430      4541            mov     a,#0x30
18F2 C0E0      4542            push    acc
18F4 7441      4543            mov     a,#0x41
18F6 C0E0      4544            push    acc
18F8 7401      4545            mov     a,#0x01
18FA C0E0      4546            push    acc
18FC E4        4547            clr     a
18FD C0E0      4548            push    acc
18FF 7401      4549            mov     a,#0x01
1901 C0E0      4550            push    acc
1903 E4        4551            clr     a
1904 C0E0      4552            push    acc
1906 857082    4553            mov     dpl,_main_syseq_1_1
1909 857183    4554            mov     dph,(_main_syseq_1_1 + 1)
190C 8572F0    4555            mov     b,(_main_syseq_1_1 + 2)
190F 120100    4556            lcall   _add_syseq
1912 E581      4557            mov     a,sp
1914 24F8      4558            add     a,#0xf8
1916 F581      4559            mov     sp,a
1918           4560   ;        C:\Source\call51\Examples\c\gs.c:275: add_syseq(syseq, 1, 2, -1.0);
1918 E4        4561            clr     a
1919 C0E0      4562            push    acc
191B C0E0      4563            push    acc
191D 7480      4564            mov     a,#0x80
191F C0E0      4565            push    acc
1921 74BF      4566            mov     a,#0xBF
1923 C0E0      4567            push    acc
1925 7402      4568            mov     a,#0x02
1927 C0E0      4569            push    acc
1929 E4        4570            clr     a
192A C0E0      4571            push    acc
192C 7401      4572            mov     a,#0x01
192E C0E0      4573            push    acc
1930 E4        4574            clr     a
1931 C0E0      4575            push    acc
1933 857082    4576            mov     dpl,_main_syseq_1_1
1936 857183    4577            mov     dph,(_main_syseq_1_1 + 1)
1939 8572F0    4578            mov     b,(_main_syseq_1_1 + 2)
193C 120100    4579            lcall   _add_syseq
193F E581      4580            mov     a,sp
1941 24F8      4581            add     a,#0xf8
1943 F581      4582            mov     sp,a
1945           4583   ;        C:\Source\call51\Examples\c\gs.c:276: add_syseq(syseq, 1, 3, 3.0);
1945 E4        4584            clr     a
1946 C0E0      4585            push    acc
1948 C0E0      4586            push    acc
194A 7440      4587            mov     a,#0x40
194C C0E0      4588            push    acc
194E C0E0      4589            push    acc
1950 7403      4590            mov     a,#0x03
1952 C0E0      4591            push    acc
1954 E4        4592            clr     a
1955 C0E0      4593            push    acc
1957 7401      4594            mov     a,#0x01
1959 C0E0      4595            push    acc
195B E4        4596            clr     a
195C C0E0      4597            push    acc
195E 857082    4598            mov     dpl,_main_syseq_1_1
1961 857183    4599            mov     dph,(_main_syseq_1_1 + 1)
1964 8572F0    4600            mov     b,(_main_syseq_1_1 + 2)
1967 120100    4601            lcall   _add_syseq
196A E581      4602            mov     a,sp
196C 24F8      4603            add     a,#0xf8
196E F581      4604            mov     sp,a
1970           4605   ;        C:\Source\call51\Examples\c\gs.c:277: syseq->eq[1].b=25.0;
1970 7410      4606            mov     a,#0x10
1972 2570      4607            add     a,_main_syseq_1_1
1974 FD        4608            mov     r5,a
1975 E4        4609            clr     a
1976 3571      4610            addc    a,(_main_syseq_1_1 + 1)
1978 FE        4611            mov     r6,a
1979 AF72      4612            mov     r7,(_main_syseq_1_1 + 2)
197B 8D82      4613            mov     dpl,r5
197D 8E83      4614            mov     dph,r6
197F 8FF0      4615            mov     b,r7
1981 120100    4616            lcall   __gptrget
1984 FD        4617            mov     r5,a
1985 A3        4618            inc     dptr
1986 120100    4619            lcall   __gptrget
1989 FE        4620            mov     r6,a
198A A3        4621            inc     dptr
198B 120100    4622            lcall   __gptrget
198E FF        4623            mov     r7,a
198F 7414      4624            mov     a,#0x14
1991 2D        4625            add     a,r5
1992 FD        4626            mov     r5,a
1993 E4        4627            clr     a
1994 3E        4628            addc    a,r6
1995 FE        4629            mov     r6,a
1996 8D82      4630            mov     dpl,r5
1998 8E83      4631            mov     dph,r6
199A 8FF0      4632            mov     b,r7
199C E4        4633            clr     a
199D 120100    4634            lcall   __gptrput
19A0 A3        4635            inc     dptr
19A1 E4        4636            clr     a
19A2 120100    4637            lcall   __gptrput
19A5 A3        4638            inc     dptr
19A6 74C8      4639            mov     a,#0xC8
19A8 120100    4640            lcall   __gptrput
19AB A3        4641            inc     dptr
19AC 7441      4642            mov     a,#0x41
19AE 120100    4643            lcall   __gptrput
19B1           4644   ;        C:\Source\call51\Examples\c\gs.c:279: add_syseq(syseq, 2, 0, 2.0);
19B1 E4        4645            clr     a
19B2 C0E0      4646            push    acc
19B4 C0E0      4647            push    acc
19B6 C0E0      4648            push    acc
19B8 7440      4649            mov     a,#0x40
19BA C0E0      4650            push    acc
19BC E4        4651            clr     a
19BD C0E0      4652            push    acc
19BF C0E0      4653            push    acc
19C1 7402      4654            mov     a,#0x02
19C3 C0E0      4655            push    acc
19C5 E4        4656            clr     a
19C6 C0E0      4657            push    acc
19C8 857082    4658            mov     dpl,_main_syseq_1_1
19CB 857183    4659            mov     dph,(_main_syseq_1_1 + 1)
19CE 8572F0    4660            mov     b,(_main_syseq_1_1 + 2)
19D1 120100    4661            lcall   _add_syseq
19D4 E581      4662            mov     a,sp
19D6 24F8      4663            add     a,#0xf8
19D8 F581      4664            mov     sp,a
19DA           4665   ;        C:\Source\call51\Examples\c\gs.c:280: add_syseq(syseq, 2, 1, -1.0);
19DA E4        4666            clr     a
19DB C0E0      4667            push    acc
19DD C0E0      4668            push    acc
19DF 7480      4669            mov     a,#0x80
19E1 C0E0      4670            push    acc
19E3 74BF      4671            mov     a,#0xBF
19E5 C0E0      4672            push    acc
19E7 7401      4673            mov     a,#0x01
19E9 C0E0      4674            push    acc
19EB E4        4675            clr     a
19EC C0E0      4676            push    acc
19EE 7402      4677            mov     a,#0x02
19F0 C0E0      4678            push    acc
19F2 E4        4679            clr     a
19F3 C0E0      4680            push    acc
19F5 857082    4681            mov     dpl,_main_syseq_1_1
19F8 857183    4682            mov     dph,(_main_syseq_1_1 + 1)
19FB 8572F0    4683            mov     b,(_main_syseq_1_1 + 2)
19FE 120100    4684            lcall   _add_syseq
1A01 E581      4685            mov     a,sp
1A03 24F8      4686            add     a,#0xf8
1A05 F581      4687            mov     sp,a
1A07           4688   ;        C:\Source\call51\Examples\c\gs.c:281: add_syseq(syseq, 2, 2, 10.0);
1A07 E4        4689            clr     a
1A08 C0E0      4690            push    acc
1A0A C0E0      4691            push    acc
1A0C 7420      4692            mov     a,#0x20
1A0E C0E0      4693            push    acc
1A10 7441      4694            mov     a,#0x41
1A12 C0E0      4695            push    acc
1A14 7402      4696            mov     a,#0x02
1A16 C0E0      4697            push    acc
1A18 E4        4698            clr     a
1A19 C0E0      4699            push    acc
1A1B 7402      4700            mov     a,#0x02
1A1D C0E0      4701            push    acc
1A1F E4        4702            clr     a
1A20 C0E0      4703            push    acc
1A22 857082    4704            mov     dpl,_main_syseq_1_1
1A25 857183    4705            mov     dph,(_main_syseq_1_1 + 1)
1A28 8572F0    4706            mov     b,(_main_syseq_1_1 + 2)
1A2B 120100    4707            lcall   _add_syseq
1A2E E581      4708            mov     a,sp
1A30 24F8      4709            add     a,#0xf8
1A32 F581      4710            mov     sp,a
1A34           4711   ;        C:\Source\call51\Examples\c\gs.c:282: add_syseq(syseq, 2, 3, -1.0);
1A34 E4        4712            clr     a
1A35 C0E0      4713            push    acc
1A37 C0E0      4714            push    acc
1A39 7480      4715            mov     a,#0x80
1A3B C0E0      4716            push    acc
1A3D 74BF      4717            mov     a,#0xBF
1A3F C0E0      4718            push    acc
1A41 7403      4719            mov     a,#0x03
1A43 C0E0      4720            push    acc
1A45 E4        4721            clr     a
1A46 C0E0      4722            push    acc
1A48 7402      4723            mov     a,#0x02
1A4A C0E0      4724            push    acc
1A4C E4        4725            clr     a
1A4D C0E0      4726            push    acc
1A4F 857082    4727            mov     dpl,_main_syseq_1_1
1A52 857183    4728            mov     dph,(_main_syseq_1_1 + 1)
1A55 8572F0    4729            mov     b,(_main_syseq_1_1 + 2)
1A58 120100    4730            lcall   _add_syseq
1A5B E581      4731            mov     a,sp
1A5D 24F8      4732            add     a,#0xf8
1A5F F581      4733            mov     sp,a
1A61           4734   ;        C:\Source\call51\Examples\c\gs.c:283: syseq->eq[2].b=-11.0;
1A61 7410      4735            mov     a,#0x10
1A63 2570      4736            add     a,_main_syseq_1_1
1A65 FD        4737            mov     r5,a
1A66 E4        4738            clr     a
1A67 3571      4739            addc    a,(_main_syseq_1_1 + 1)
1A69 FE        4740            mov     r6,a
1A6A AF72      4741            mov     r7,(_main_syseq_1_1 + 2)
1A6C 8D82      4742            mov     dpl,r5
1A6E 8E83      4743            mov     dph,r6
1A70 8FF0      4744            mov     b,r7
1A72 120100    4745            lcall   __gptrget
1A75 FD        4746            mov     r5,a
1A76 A3        4747            inc     dptr
1A77 120100    4748            lcall   __gptrget
1A7A FE        4749            mov     r6,a
1A7B A3        4750            inc     dptr
1A7C 120100    4751            lcall   __gptrget
1A7F FF        4752            mov     r7,a
1A80 7428      4753            mov     a,#0x28
1A82 2D        4754            add     a,r5
1A83 FD        4755            mov     r5,a
1A84 E4        4756            clr     a
1A85 3E        4757            addc    a,r6
1A86 FE        4758            mov     r6,a
1A87 8D82      4759            mov     dpl,r5
1A89 8E83      4760            mov     dph,r6
1A8B 8FF0      4761            mov     b,r7
1A8D E4        4762            clr     a
1A8E 120100    4763            lcall   __gptrput
1A91 A3        4764            inc     dptr
1A92 E4        4765            clr     a
1A93 120100    4766            lcall   __gptrput
1A96 A3        4767            inc     dptr
1A97 7430      4768            mov     a,#0x30
1A99 120100    4769            lcall   __gptrput
1A9C A3        4770            inc     dptr
1A9D 74C1      4771            mov     a,#0xC1
1A9F 120100    4772            lcall   __gptrput
1AA2           4773   ;        C:\Source\call51\Examples\c\gs.c:285: add_syseq(syseq, 3, 1, 3.0);
1AA2 E4        4774            clr     a
1AA3 C0E0      4775            push    acc
1AA5 C0E0      4776            push    acc
1AA7 7440      4777            mov     a,#0x40
1AA9 C0E0      4778            push    acc
1AAB C0E0      4779            push    acc
1AAD 7401      4780            mov     a,#0x01
1AAF C0E0      4781            push    acc
1AB1 E4        4782            clr     a
1AB2 C0E0      4783            push    acc
1AB4 7403      4784            mov     a,#0x03
1AB6 C0E0      4785            push    acc
1AB8 E4        4786            clr     a
1AB9 C0E0      4787            push    acc
1ABB 857082    4788            mov     dpl,_main_syseq_1_1
1ABE 857183    4789            mov     dph,(_main_syseq_1_1 + 1)
1AC1 8572F0    4790            mov     b,(_main_syseq_1_1 + 2)
1AC4 120100    4791            lcall   _add_syseq
1AC7 E581      4792            mov     a,sp
1AC9 24F8      4793            add     a,#0xf8
1ACB F581      4794            mov     sp,a
1ACD           4795   ;        C:\Source\call51\Examples\c\gs.c:286: add_syseq(syseq, 3, 2, -1.0);
1ACD E4        4796            clr     a
1ACE C0E0      4797            push    acc
1AD0 C0E0      4798            push    acc
1AD2 7480      4799            mov     a,#0x80
1AD4 C0E0      4800            push    acc
1AD6 74BF      4801            mov     a,#0xBF
1AD8 C0E0      4802            push    acc
1ADA 7402      4803            mov     a,#0x02
1ADC C0E0      4804            push    acc
1ADE E4        4805            clr     a
1ADF C0E0      4806            push    acc
1AE1 7403      4807            mov     a,#0x03
1AE3 C0E0      4808            push    acc
1AE5 E4        4809            clr     a
1AE6 C0E0      4810            push    acc
1AE8 857082    4811            mov     dpl,_main_syseq_1_1
1AEB 857183    4812            mov     dph,(_main_syseq_1_1 + 1)
1AEE 8572F0    4813            mov     b,(_main_syseq_1_1 + 2)
1AF1 120100    4814            lcall   _add_syseq
1AF4 E581      4815            mov     a,sp
1AF6 24F8      4816            add     a,#0xf8
1AF8 F581      4817            mov     sp,a
1AFA           4818   ;        C:\Source\call51\Examples\c\gs.c:287: add_syseq(syseq, 3, 3, 8.0);
1AFA E4        4819            clr     a
1AFB C0E0      4820            push    acc
1AFD C0E0      4821            push    acc
1AFF C0E0      4822            push    acc
1B01 7441      4823            mov     a,#0x41
1B03 C0E0      4824            push    acc
1B05 7403      4825            mov     a,#0x03
1B07 C0E0      4826            push    acc
1B09 E4        4827            clr     a
1B0A C0E0      4828            push    acc
1B0C 7403      4829            mov     a,#0x03
1B0E C0E0      4830            push    acc
1B10 E4        4831            clr     a
1B11 C0E0      4832            push    acc
1B13 857082    4833            mov     dpl,_main_syseq_1_1
1B16 857183    4834            mov     dph,(_main_syseq_1_1 + 1)
1B19 8572F0    4835            mov     b,(_main_syseq_1_1 + 2)
1B1C 120100    4836            lcall   _add_syseq
1B1F E581      4837            mov     a,sp
1B21 24F8      4838            add     a,#0xf8
1B23 F581      4839            mov     sp,a
1B25           4840   ;        C:\Source\call51\Examples\c\gs.c:288: syseq->eq[3].b=15.0;
1B25 7410      4841            mov     a,#0x10
1B27 2570      4842            add     a,_main_syseq_1_1
1B29 FD        4843            mov     r5,a
1B2A E4        4844            clr     a
1B2B 3571      4845            addc    a,(_main_syseq_1_1 + 1)
1B2D FE        4846            mov     r6,a
1B2E AF72      4847            mov     r7,(_main_syseq_1_1 + 2)
1B30 8D82      4848            mov     dpl,r5
1B32 8E83      4849            mov     dph,r6
1B34 8FF0      4850            mov     b,r7
1B36 120100    4851            lcall   __gptrget
1B39 FD        4852            mov     r5,a
1B3A A3        4853            inc     dptr
1B3B 120100    4854            lcall   __gptrget
1B3E FE        4855            mov     r6,a
1B3F A3        4856            inc     dptr
1B40 120100    4857            lcall   __gptrget
1B43 FF        4858            mov     r7,a
1B44 743C      4859            mov     a,#0x3C
1B46 2D        4860            add     a,r5
1B47 FD        4861            mov     r5,a
1B48 E4        4862            clr     a
1B49 3E        4863            addc    a,r6
1B4A FE        4864            mov     r6,a
1B4B 8D82      4865            mov     dpl,r5
1B4D 8E83      4866            mov     dph,r6
1B4F 8FF0      4867            mov     b,r7
1B51 E4        4868            clr     a
1B52 120100    4869            lcall   __gptrput
1B55 A3        4870            inc     dptr
1B56 E4        4871            clr     a
1B57 120100    4872            lcall   __gptrput
1B5A A3        4873            inc     dptr
1B5B 7470      4874            mov     a,#0x70
1B5D 120100    4875            lcall   __gptrput
1B60 A3        4876            inc     dptr
1B61 7441      4877            mov     a,#0x41
1B63 120100    4878            lcall   __gptrput
1B66           4879   ;        C:\Source\call51\Examples\c\gs.c:291: syseq->debug=1;
1B66 740E      4880            mov     a,#0x0E
1B68 2570      4881            add     a,_main_syseq_1_1
1B6A FD        4882            mov     r5,a
1B6B E4        4883            clr     a
1B6C 3571      4884            addc    a,(_main_syseq_1_1 + 1)
1B6E FE        4885            mov     r6,a
1B6F AF72      4886            mov     r7,(_main_syseq_1_1 + 2)
1B71 8D82      4887            mov     dpl,r5
1B73 8E83      4888            mov     dph,r6
1B75 8FF0      4889            mov     b,r7
1B77 7401      4890            mov     a,#0x01
1B79 120100    4891            lcall   __gptrput
1B7C A3        4892            inc     dptr
1B7D E4        4893            clr     a
1B7E 120100    4894            lcall   __gptrput
1B81           4895   ;        C:\Source\call51\Examples\c\gs.c:292: solve_syseq(syseq);
1B81 857082    4896            mov     dpl,_main_syseq_1_1
1B84 857183    4897            mov     dph,(_main_syseq_1_1 + 1)
1B87 8572F0    4898            mov     b,(_main_syseq_1_1 + 2)
1B8A 120100    4899            lcall   _solve_syseq
1B8D           4900   ;        C:\Source\call51\Examples\c\gs.c:293: free_syseq(syseq);
1B8D 857082    4901            mov     dpl,_main_syseq_1_1
1B90 857183    4902            mov     dph,(_main_syseq_1_1 + 1)
1B93 8572F0    4903            mov     b,(_main_syseq_1_1 + 2)
1B96 120100    4904            lcall   _free_syseq
1B99           4905   ;        C:\Source\call51\Examples\c\gs.c:294: free(syseq);
1B99 857082    4906            mov     dpl,_main_syseq_1_1
1B9C 857183    4907            mov     dph,(_main_syseq_1_1 + 1)
1B9F 8572F0    4908            mov     b,(_main_syseq_1_1 + 2)
1BA2 120100    4909            lcall   _free
1BA5           4910   ;        C:\Source\call51\Examples\c\gs.c:299: syseq=create_syseq(3, 25, 1.0e-7, 1.25);
1BA5 E4        4911            clr     a
1BA6 C0E0      4912            push    acc
1BA8 C0E0      4913            push    acc
1BAA 74A0      4914            mov     a,#0xA0
1BAC C0E0      4915            push    acc
1BAE 743F      4916            mov     a,#0x3F
1BB0 C0E0      4917            push    acc
1BB2 7495      4918            mov     a,#0x95
1BB4 C0E0      4919            push    acc
1BB6 74BF      4920            mov     a,#0xBF
1BB8 C0E0      4921            push    acc
1BBA 74D6      4922            mov     a,#0xD6
1BBC C0E0      4923            push    acc
1BBE 7433      4924            mov     a,#0x33
1BC0 C0E0      4925            push    acc
1BC2 7419      4926            mov     a,#0x19
1BC4 C0E0      4927            push    acc
1BC6 E4        4928            clr     a
1BC7 C0E0      4929            push    acc
1BC9 900003    4930            mov     dptr,#0x0003
1BCC 120100    4931            lcall   _create_syseq
1BCF 858270    4932            mov     _main_syseq_1_1,dpl
1BD2 858371    4933            mov     (_main_syseq_1_1 + 1),dph
1BD5 85F072    4934            mov     (_main_syseq_1_1 + 2),b
1BD8 E581      4935            mov     a,sp
1BDA 24F6      4936            add     a,#0xf6
1BDC F581      4937            mov     sp,a
1BDE           4938   ;        C:\Source\call51\Examples\c\gs.c:301: add_syseq(syseq, 0, 0, 4.0);
1BDE E4        4939            clr     a
1BDF C0E0      4940            push    acc
1BE1 C0E0      4941            push    acc
1BE3 7480      4942            mov     a,#0x80
1BE5 C0E0      4943            push    acc
1BE7 7440      4944            mov     a,#0x40
1BE9 C0E0      4945            push    acc
1BEB E4        4946            clr     a
1BEC C0E0      4947            push    acc
1BEE C0E0      4948            push    acc
1BF0 E4        4949            clr     a
1BF1 C0E0      4950            push    acc
1BF3 C0E0      4951            push    acc
1BF5 857082    4952            mov     dpl,_main_syseq_1_1
1BF8 857183    4953            mov     dph,(_main_syseq_1_1 + 1)
1BFB 8572F0    4954            mov     b,(_main_syseq_1_1 + 2)
1BFE 120100    4955            lcall   _add_syseq
1C01 E581      4956            mov     a,sp
1C03 24F8      4957            add     a,#0xf8
1C05 F581      4958            mov     sp,a
1C07           4959   ;        C:\Source\call51\Examples\c\gs.c:302: add_syseq(syseq, 0, 1, 3.0);
1C07 E4        4960            clr     a
1C08 C0E0      4961            push    acc
1C0A C0E0      4962            push    acc
1C0C 7440      4963            mov     a,#0x40
1C0E C0E0      4964            push    acc
1C10 C0E0      4965            push    acc
1C12 7401      4966            mov     a,#0x01
1C14 C0E0      4967            push    acc
1C16 E4        4968            clr     a
1C17 C0E0      4969            push    acc
1C19 E4        4970            clr     a
1C1A C0E0      4971            push    acc
1C1C C0E0      4972            push    acc
1C1E 857082    4973            mov     dpl,_main_syseq_1_1
1C21 857183    4974            mov     dph,(_main_syseq_1_1 + 1)
1C24 8572F0    4975            mov     b,(_main_syseq_1_1 + 2)
1C27 120100    4976            lcall   _add_syseq
1C2A E581      4977            mov     a,sp
1C2C 24F8      4978            add     a,#0xf8
1C2E F581      4979            mov     sp,a
1C30           4980   ;        C:\Source\call51\Examples\c\gs.c:303: syseq->eq[0].b=24.0;
1C30 7410      4981            mov     a,#0x10
1C32 2570      4982            add     a,_main_syseq_1_1
1C34 FD        4983            mov     r5,a
1C35 E4        4984            clr     a
1C36 3571      4985            addc    a,(_main_syseq_1_1 + 1)
1C38 FE        4986            mov     r6,a
1C39 AF72      4987            mov     r7,(_main_syseq_1_1 + 2)
1C3B 8D82      4988            mov     dpl,r5
1C3D 8E83      4989            mov     dph,r6
1C3F 8FF0      4990            mov     b,r7
1C41 120100    4991            lcall   __gptrget
1C44 FD        4992            mov     r5,a
1C45 A3        4993            inc     dptr
1C46 120100    4994            lcall   __gptrget
1C49 FE        4995            mov     r6,a
1C4A A3        4996            inc     dptr
1C4B 120100    4997            lcall   __gptrget
1C4E FF        4998            mov     r7,a
1C4F 8D82      4999            mov     dpl,r5
1C51 8E83      5000            mov     dph,r6
1C53 8FF0      5001            mov     b,r7
1C55 E4        5002            clr     a
1C56 120100    5003            lcall   __gptrput
1C59 A3        5004            inc     dptr
1C5A E4        5005            clr     a
1C5B 120100    5006            lcall   __gptrput
1C5E A3        5007            inc     dptr
1C5F 74C0      5008            mov     a,#0xC0
1C61 120100    5009            lcall   __gptrput
1C64 A3        5010            inc     dptr
1C65 7441      5011            mov     a,#0x41
1C67 120100    5012            lcall   __gptrput
1C6A           5013   ;        C:\Source\call51\Examples\c\gs.c:305: add_syseq(syseq, 1, 0, 3.0);
1C6A E4        5014            clr     a
1C6B C0E0      5015            push    acc
1C6D C0E0      5016            push    acc
1C6F 7440      5017            mov     a,#0x40
1C71 C0E0      5018            push    acc
1C73 C0E0      5019            push    acc
1C75 E4        5020            clr     a
1C76 C0E0      5021            push    acc
1C78 C0E0      5022            push    acc
1C7A 7401      5023            mov     a,#0x01
1C7C C0E0      5024            push    acc
1C7E E4        5025            clr     a
1C7F C0E0      5026            push    acc
1C81 857082    5027            mov     dpl,_main_syseq_1_1
1C84 857183    5028            mov     dph,(_main_syseq_1_1 + 1)
1C87 8572F0    5029            mov     b,(_main_syseq_1_1 + 2)
1C8A 120100    5030            lcall   _add_syseq
1C8D E581      5031            mov     a,sp
1C8F 24F8      5032            add     a,#0xf8
1C91 F581      5033            mov     sp,a
1C93           5034   ;        C:\Source\call51\Examples\c\gs.c:306: add_syseq(syseq, 1, 1, 4.0);
1C93 E4        5035            clr     a
1C94 C0E0      5036            push    acc
1C96 C0E0      5037            push    acc
1C98 7480      5038            mov     a,#0x80
1C9A C0E0      5039            push    acc
1C9C 7440      5040            mov     a,#0x40
1C9E C0E0      5041            push    acc
1CA0 7401      5042            mov     a,#0x01
1CA2 C0E0      5043            push    acc
1CA4 E4        5044            clr     a
1CA5 C0E0      5045            push    acc
1CA7 7401      5046            mov     a,#0x01
1CA9 C0E0      5047            push    acc
1CAB E4        5048            clr     a
1CAC C0E0      5049            push    acc
1CAE 857082    5050            mov     dpl,_main_syseq_1_1
1CB1 857183    5051            mov     dph,(_main_syseq_1_1 + 1)
1CB4 8572F0    5052            mov     b,(_main_syseq_1_1 + 2)
1CB7 120100    5053            lcall   _add_syseq
1CBA E581      5054            mov     a,sp
1CBC 24F8      5055            add     a,#0xf8
1CBE F581      5056            mov     sp,a
1CC0           5057   ;        C:\Source\call51\Examples\c\gs.c:307: add_syseq(syseq, 1, 2, -1.0);
1CC0 E4        5058            clr     a
1CC1 C0E0      5059            push    acc
1CC3 C0E0      5060            push    acc
1CC5 7480      5061            mov     a,#0x80
1CC7 C0E0      5062            push    acc
1CC9 74BF      5063            mov     a,#0xBF
1CCB C0E0      5064            push    acc
1CCD 7402      5065            mov     a,#0x02
1CCF C0E0      5066            push    acc
1CD1 E4        5067            clr     a
1CD2 C0E0      5068            push    acc
1CD4 7401      5069            mov     a,#0x01
1CD6 C0E0      5070            push    acc
1CD8 E4        5071            clr     a
1CD9 C0E0      5072            push    acc
1CDB 857082    5073            mov     dpl,_main_syseq_1_1
1CDE 857183    5074            mov     dph,(_main_syseq_1_1 + 1)
1CE1 8572F0    5075            mov     b,(_main_syseq_1_1 + 2)
1CE4 120100    5076            lcall   _add_syseq
1CE7 E581      5077            mov     a,sp
1CE9 24F8      5078            add     a,#0xf8
1CEB F581      5079            mov     sp,a
1CED           5080   ;        C:\Source\call51\Examples\c\gs.c:308: syseq->eq[1].b=30.0;
1CED 7410      5081            mov     a,#0x10
1CEF 2570      5082            add     a,_main_syseq_1_1
1CF1 FD        5083            mov     r5,a
1CF2 E4        5084            clr     a
1CF3 3571      5085            addc    a,(_main_syseq_1_1 + 1)
1CF5 FE        5086            mov     r6,a
1CF6 AF72      5087            mov     r7,(_main_syseq_1_1 + 2)
1CF8 8D82      5088            mov     dpl,r5
1CFA 8E83      5089            mov     dph,r6
1CFC 8FF0      5090            mov     b,r7
1CFE 120100    5091            lcall   __gptrget
1D01 FD        5092            mov     r5,a
1D02 A3        5093            inc     dptr
1D03 120100    5094            lcall   __gptrget
1D06 FE        5095            mov     r6,a
1D07 A3        5096            inc     dptr
1D08 120100    5097            lcall   __gptrget
1D0B FF        5098            mov     r7,a
1D0C 7414      5099            mov     a,#0x14
1D0E 2D        5100            add     a,r5
1D0F FD        5101            mov     r5,a
1D10 E4        5102            clr     a
1D11 3E        5103            addc    a,r6
1D12 FE        5104            mov     r6,a
1D13 8D82      5105            mov     dpl,r5
1D15 8E83      5106            mov     dph,r6
1D17 8FF0      5107            mov     b,r7
1D19 E4        5108            clr     a
1D1A 120100    5109            lcall   __gptrput
1D1D A3        5110            inc     dptr
1D1E E4        5111            clr     a
1D1F 120100    5112            lcall   __gptrput
1D22 A3        5113            inc     dptr
1D23 74F0      5114            mov     a,#0xF0
1D25 120100    5115            lcall   __gptrput
1D28 A3        5116            inc     dptr
1D29 7441      5117            mov     a,#0x41
1D2B 120100    5118            lcall   __gptrput
1D2E           5119   ;        C:\Source\call51\Examples\c\gs.c:310: add_syseq(syseq, 2, 1, -1.0);
1D2E E4        5120            clr     a
1D2F C0E0      5121            push    acc
1D31 C0E0      5122            push    acc
1D33 7480      5123            mov     a,#0x80
1D35 C0E0      5124            push    acc
1D37 74BF      5125            mov     a,#0xBF
1D39 C0E0      5126            push    acc
1D3B 7401      5127            mov     a,#0x01
1D3D C0E0      5128            push    acc
1D3F E4        5129            clr     a
1D40 C0E0      5130            push    acc
1D42 7402      5131            mov     a,#0x02
1D44 C0E0      5132            push    acc
1D46 E4        5133            clr     a
1D47 C0E0      5134            push    acc
1D49 857082    5135            mov     dpl,_main_syseq_1_1
1D4C 857183    5136            mov     dph,(_main_syseq_1_1 + 1)
1D4F 8572F0    5137            mov     b,(_main_syseq_1_1 + 2)
1D52 120100    5138            lcall   _add_syseq
1D55 E581      5139            mov     a,sp
1D57 24F8      5140            add     a,#0xf8
1D59 F581      5141            mov     sp,a
1D5B           5142   ;        C:\Source\call51\Examples\c\gs.c:311: add_syseq(syseq, 2, 2, 4.0);
1D5B E4        5143            clr     a
1D5C C0E0      5144            push    acc
1D5E C0E0      5145            push    acc
1D60 7480      5146            mov     a,#0x80
1D62 C0E0      5147            push    acc
1D64 7440      5148            mov     a,#0x40
1D66 C0E0      5149            push    acc
1D68 7402      5150            mov     a,#0x02
1D6A C0E0      5151            push    acc
1D6C E4        5152            clr     a
1D6D C0E0      5153            push    acc
1D6F 7402      5154            mov     a,#0x02
1D71 C0E0      5155            push    acc
1D73 E4        5156            clr     a
1D74 C0E0      5157            push    acc
1D76 857082    5158            mov     dpl,_main_syseq_1_1
1D79 857183    5159            mov     dph,(_main_syseq_1_1 + 1)
1D7C 8572F0    5160            mov     b,(_main_syseq_1_1 + 2)
1D7F 120100    5161            lcall   _add_syseq
1D82 E581      5162            mov     a,sp
1D84 24F8      5163            add     a,#0xf8
1D86 F581      5164            mov     sp,a
1D88           5165   ;        C:\Source\call51\Examples\c\gs.c:312: syseq->eq[2].b=-24.0;
1D88 7410      5166            mov     a,#0x10
1D8A 2570      5167            add     a,_main_syseq_1_1
1D8C FD        5168            mov     r5,a
1D8D E4        5169            clr     a
1D8E 3571      5170            addc    a,(_main_syseq_1_1 + 1)
1D90 FE        5171            mov     r6,a
1D91 AF72      5172            mov     r7,(_main_syseq_1_1 + 2)
1D93 8D82      5173            mov     dpl,r5
1D95 8E83      5174            mov     dph,r6
1D97 8FF0      5175            mov     b,r7
1D99 120100    5176            lcall   __gptrget
1D9C FD        5177            mov     r5,a
1D9D A3        5178            inc     dptr
1D9E 120100    5179            lcall   __gptrget
1DA1 FE        5180            mov     r6,a
1DA2 A3        5181            inc     dptr
1DA3 120100    5182            lcall   __gptrget
1DA6 FF        5183            mov     r7,a
1DA7 7428      5184            mov     a,#0x28
1DA9 2D        5185            add     a,r5
1DAA F8        5186            mov     r0,a
1DAB E4        5187            clr     a
1DAC 3E        5188            addc    a,r6
1DAD F9        5189            mov     r1,a
1DAE 8F02      5190            mov     ar2,r7
1DB0 8882      5191            mov     dpl,r0
1DB2 8983      5192            mov     dph,r1
1DB4 8AF0      5193            mov     b,r2
1DB6 E4        5194            clr     a
1DB7 120100    5195            lcall   __gptrput
1DBA A3        5196            inc     dptr
1DBB E4        5197            clr     a
1DBC 120100    5198            lcall   __gptrput
1DBF A3        5199            inc     dptr
1DC0 74C0      5200            mov     a,#0xC0
1DC2 120100    5201            lcall   __gptrput
1DC5 A3        5202            inc     dptr
1DC6 74C1      5203            mov     a,#0xC1
1DC8 120100    5204            lcall   __gptrput
1DCB           5205   ;        C:\Source\call51\Examples\c\gs.c:314: syseq->eq[0].x=1;
1DCB 7408      5206            mov     a,#0x08
1DCD 2D        5207            add     a,r5
1DCE FA        5208            mov     r2,a
1DCF E4        5209            clr     a
1DD0 3E        5210            addc    a,r6
1DD1 FB        5211            mov     r3,a
1DD2 8F04      5212            mov     ar4,r7
1DD4 8A82      5213            mov     dpl,r2
1DD6 8B83      5214            mov     dph,r3
1DD8 8CF0      5215            mov     b,r4
1DDA E4        5216            clr     a
1DDB 120100    5217            lcall   __gptrput
1DDE A3        5218            inc     dptr
1DDF E4        5219            clr     a
1DE0 120100    5220            lcall   __gptrput
1DE3 A3        5221            inc     dptr
1DE4 7480      5222            mov     a,#0x80
1DE6 120100    5223            lcall   __gptrput
1DE9 A3        5224            inc     dptr
1DEA 743F      5225            mov     a,#0x3F
1DEC 120100    5226            lcall   __gptrput
1DEF           5227   ;        C:\Source\call51\Examples\c\gs.c:315: syseq->eq[1].x=1;
1DEF 741C      5228            mov     a,#0x1C
1DF1 2D        5229            add     a,r5
1DF2 FA        5230            mov     r2,a
1DF3 E4        5231            clr     a
1DF4 3E        5232            addc    a,r6
1DF5 FB        5233            mov     r3,a
1DF6 8F04      5234            mov     ar4,r7
1DF8 8A82      5235            mov     dpl,r2
1DFA 8B83      5236            mov     dph,r3
1DFC 8CF0      5237            mov     b,r4
1DFE E4        5238            clr     a
1DFF 120100    5239            lcall   __gptrput
1E02 A3        5240            inc     dptr
1E03 E4        5241            clr     a
1E04 120100    5242            lcall   __gptrput
1E07 A3        5243            inc     dptr
1E08 7480      5244            mov     a,#0x80
1E0A 120100    5245            lcall   __gptrput
1E0D A3        5246            inc     dptr
1E0E 743F      5247            mov     a,#0x3F
1E10 120100    5248            lcall   __gptrput
1E13           5249   ;        C:\Source\call51\Examples\c\gs.c:316: syseq->eq[2].x=1;
1E13 7430      5250            mov     a,#0x30
1E15 2D        5251            add     a,r5
1E16 FD        5252            mov     r5,a
1E17 E4        5253            clr     a
1E18 3E        5254            addc    a,r6
1E19 FE        5255            mov     r6,a
1E1A 8D82      5256            mov     dpl,r5
1E1C 8E83      5257            mov     dph,r6
1E1E 8FF0      5258            mov     b,r7
1E20 E4        5259            clr     a
1E21 120100    5260            lcall   __gptrput
1E24 A3        5261            inc     dptr
1E25 E4        5262            clr     a
1E26 120100    5263            lcall   __gptrput
1E29 A3        5264            inc     dptr
1E2A 7480      5265            mov     a,#0x80
1E2C 120100    5266            lcall   __gptrput
1E2F A3        5267            inc     dptr
1E30 743F      5268            mov     a,#0x3F
1E32 120100    5269            lcall   __gptrput
1E35           5270   ;        C:\Source\call51\Examples\c\gs.c:318: solve_syseq(syseq);
1E35 857082    5271            mov     dpl,_main_syseq_1_1
1E38 857183    5272            mov     dph,(_main_syseq_1_1 + 1)
1E3B 8572F0    5273            mov     b,(_main_syseq_1_1 + 2)
1E3E 120100    5274            lcall   _solve_syseq
1E41           5275   ;        C:\Source\call51\Examples\c\gs.c:320: syseq->numiter, (int) log10(1.0/syseq->tol));
1E41 7406      5276            mov     a,#0x06
1E43 2570      5277            add     a,_main_syseq_1_1
1E45 FA        5278            mov     r2,a
1E46 E4        5279            clr     a
1E47 3571      5280            addc    a,(_main_syseq_1_1 + 1)
1E49 FB        5281            mov     r3,a
1E4A AC72      5282            mov     r4,(_main_syseq_1_1 + 2)
1E4C 8A82      5283            mov     dpl,r2
1E4E 8B83      5284            mov     dph,r3
1E50 8CF0      5285            mov     b,r4
1E52 120100    5286            lcall   __gptrget
1E55 FA        5287            mov     r2,a
1E56 A3        5288            inc     dptr
1E57 120100    5289            lcall   __gptrget
1E5A FB        5290            mov     r3,a
1E5B A3        5291            inc     dptr
1E5C 120100    5292            lcall   __gptrget
1E5F FC        5293            mov     r4,a
1E60 A3        5294            inc     dptr
1E61 120100    5295            lcall   __gptrget
1E64 FD        5296            mov     r5,a
1E65 C002      5297            push    ar2
1E67 C003      5298            push    ar3
1E69 C004      5299            push    ar4
1E6B C005      5300            push    ar5
1E6D 900000    5301            mov     dptr,#0x0000
1E70 75F080    5302            mov     b,#0x80
1E73 743F      5303            mov     a,#0x3F
1E75 120100    5304            lcall   ___fsdiv
1E78 AA82      5305            mov     r2,dpl
1E7A AB83      5306            mov     r3,dph
1E7C ACF0      5307            mov     r4,b
1E7E FD        5308            mov     r5,a
1E7F E581      5309            mov     a,sp
1E81 24FC      5310            add     a,#0xfc
1E83 F581      5311            mov     sp,a
1E85 8A82      5312            mov     dpl,r2
1E87 8B83      5313            mov     dph,r3
1E89 8CF0      5314            mov     b,r4
1E8B ED        5315            mov     a,r5
1E8C 120100    5316            lcall   _log10f
1E8F 120100    5317            lcall   ___fs2sint
1E92 AA82      5318            mov     r2,dpl
1E94 AB83      5319            mov     r3,dph
1E96 7404      5320            mov     a,#0x04
1E98 2570      5321            add     a,_main_syseq_1_1
1E9A FC        5322            mov     r4,a
1E9B E4        5323            clr     a
1E9C 3571      5324            addc    a,(_main_syseq_1_1 + 1)
1E9E FD        5325            mov     r5,a
1E9F AE72      5326            mov     r6,(_main_syseq_1_1 + 2)
1EA1 8C82      5327            mov     dpl,r4
1EA3 8D83      5328            mov     dph,r5
1EA5 8EF0      5329            mov     b,r6
1EA7 120100    5330            lcall   __gptrget
1EAA FC        5331            mov     r4,a
1EAB A3        5332            inc     dptr
1EAC 120100    5333            lcall   __gptrget
1EAF FD        5334            mov     r5,a
1EB0           5335   ;        C:\Source\call51\Examples\c\gs.c:319: printf("\nThe second system was solved in %d iterations with %d-digit accuracy:\n",
1EB0 C002      5336            push    ar2
1EB2 C003      5337            push    ar3
1EB4 C004      5338            push    ar4
1EB6 C005      5339            push    ar5
1EB8 7440      5340            mov     a,#__str_11
1EBA C0E0      5341            push    acc
1EBC 7498      5342            mov     a,#(__str_11 >> 8)
1EBE C0E0      5343            push    acc
1EC0 7480      5344            mov     a,#0x80
1EC2 C0E0      5345            push    acc
1EC4 120100    5346            lcall   _printf
1EC7 E581      5347            mov     a,sp
1EC9 24F9      5348            add     a,#0xf9
1ECB F581      5349            mov     sp,a
1ECD           5350   ;        C:\Source\call51\Examples\c\gs.c:321: print_syseq_x(syseq);
1ECD 857082    5351            mov     dpl,_main_syseq_1_1
1ED0 857183    5352            mov     dph,(_main_syseq_1_1 + 1)
1ED3 8572F0    5353            mov     b,(_main_syseq_1_1 + 2)
1ED6 120100    5354            lcall   _print_syseq_x
1ED9           5355   ;        C:\Source\call51\Examples\c\gs.c:322: free_syseq(syseq);
1ED9 857082    5356            mov     dpl,_main_syseq_1_1
1EDC 857183    5357            mov     dph,(_main_syseq_1_1 + 1)
1EDF 8572F0    5358            mov     b,(_main_syseq_1_1 + 2)
1EE2 120100    5359            lcall   _free_syseq
1EE5           5360   ;        C:\Source\call51\Examples\c\gs.c:323: free(syseq);
1EE5 857082    5361            mov     dpl,_main_syseq_1_1
1EE8 857183    5362            mov     dph,(_main_syseq_1_1 + 1)
1EEB 8572F0    5363            mov     b,(_main_syseq_1_1 + 2)
1EEE 020100    5364            ljmp    _free
0000           5365            rseg R_CSEG
0000           5366   
0000           5367            rseg R_CONST
0000           5368   __c51_heap_size:
0000 8001      5369            db 0x80,0x01    ; 384
0002           5370   __str_0:
0002 4552524F  5371            db 'ERROR: not enough memory for '
     523A206E
     6F742065
     6E6F7567
     68206D65
     6D6F7279
     20666F72
     20
001F 27        5372            db 0x27
0020 67696A    5373            db 'gij'
0023 27        5374            db 0x27
0024 20617272  5375            db ' array.'
     61792E
002B 0A        5376            db 0x0A
002C 00        5377            db 0x00
002D           5378   __str_1:
002D 4552524F  5379            db 'ERROR: not enough memory for '
     523A206E
     6F742065
     6E6F7567
     68206D65
     6D6F7279
     20666F72
     20
004A 27        5380            db 0x27
004B 6571      5381            db 'eq'
004D 27        5382            db 0x27
004E 20617272  5383            db ' array.'
     61792E
0055 0A        5384            db 0x0A
0056 00        5385            db 0x00
0057           5386   __str_2:
0057 4552524F  5387            db 'ERROR: not enough memory for system of equations.'
     523A206E
     6F742065
     6E6F7567
     68206D65
     6D6F7279
     20666F72
     20737973
     74656D20
     6F662065
     71756174
     696F6E73
     2E
0088 0A        5388            db 0x0A
0089 00        5389            db 0x00
008A           5390   __str_3:
008A 4552524F  5391            db 'ERROR: not enough memory for equation.'
     523A206E
     6F742065
     6E6F7567
     68206D65
     6D6F7279
     20666F72
     20657175
     6174696F
     6E2E
00B0 0A        5392            db 0x0A
00B1 00        5393            db 0x00
00B2           5394   __str_4:
00B2 25252564  5395            db '%%%d.%df'
     2E256466
00BA 00        5396            db 0x00
00BB           5397   __str_5:
00BB 2C20      5398            db ', '
00BD 00        5399            db 0x00
00BE           5400   __str_6:
00BE 0A        5401            db 0x0A
00BF 00        5402            db 0x00
00C0           5403   __str_7:
00C0 78282564  5404            db 'x(%d)= '
     293D20
00C7 00        5405            db 0x00
00C8           5406   __str_8:
00C8 25642D64  5407            db '%d-digit accuracy reached in %d iterations'
     69676974
     20616363
     75726163
     79207265
     61636865
     6420696E
     20256420
     69746572
     6174696F
     6E73
00F2 0A        5408            db 0x0A
00F3 00        5409            db 0x00
00F4           5410   __str_9:
00F4 4552524F  5411            db 'ERROR: %d-digit accuracy not reached in %d iterations'
     523A2025
     642D6469
     67697420
     61636375
     72616379
     206E6F74
     20726561
     63686564
     20696E20
     25642069
     74657261
     74696F6E
     73
0129 0A        5412            db 0x0A
012A 00        5413            db 0x00
012B           5414   __str_10:
012B 0A        5415            db 0x0A
012C 0A        5416            db 0x0A
012D 47617573  5417            db 'Gauss-Seidel Solution of linear systems'
     732D5365
     6964656C
     20536F6C
     7574696F
     6E206F66
     206C696E
     65617220
     73797374
     656D73
0154 0A        5418            db 0x0A
0155 4279204A  5419            db 'By Jesus Calvino-F'
     65737573
     2043616C
     76696E6F
     2D46
0167 72616761  5420            db 'raga (c) 2006-2011'
     20286329
     20323030
     362D3230
     3131
0179 0A        5421            db 0x0A
017A 0A        5422            db 0x0A
017B 00        5423            db 0x00
017C           5424   __str_11:
017C 0A        5425            db 0x0A
017D 54686520  5426            db 'The second system was solved in %d iterations with %d-digit'
     7365636F
     6E642073
     79737465
     6D207761
     7320736F
     6C766564
     20696E20
     25642069
     74657261
     74696F6E
     73207769
     74682025
     642D6469
     676974
01B8 20616363  5427            db ' accuracy:'
     75726163
     793A
01C2 0A        5428            db 0x0A
01C3 00        5429            db 0x00
01C4           5430   
0000           5431            rseg R_XINIT
0000           5432   
0003           5433            CSEG
0003           5434   
0003           5435   end
